Microchip Technology Inc, vv3_30 (B) N

Tool Name:
  c:\program files (x86)\microchip\mplab c30\bin\bin\..\bin/pic30-elf-ld.exe

Command:
  -p30F6014A \
  -o \
  dist/default/production/demoGCtronic.X.production.elf \
  -Lc:/program files (x86)/microchip/mplab c30/bin/bin/.. \
  -Lc:/program files (x86)/microchip/mplab c30/bin/bin/../../lib \
  -Lc:/program files (x86)/microchip/mplab c30/bin/bin/../../lib/PIC24E \
  -Lc:/program files (x86)/microchip/mplab c30/bin/bin/../../support/PIC24E/gld \
  -Lc:/program files (x86)/microchip/mplab c30/bin/bin/../../lib/PIC24F \
  -Lc:/program files (x86)/microchip/mplab c30/bin/bin/../../support/PIC24F/gld \
  -Lc:/program files (x86)/microchip/mplab c30/bin/bin/../../lib/PIC24H \
  -Lc:/program files (x86)/microchip/mplab c30/bin/bin/../../support/PIC24H/gld \
  -Lc:/program files (x86)/microchip/mplab c30/bin/bin/../../lib/dsPIC30F \
  -Lc:/program files (x86)/microchip/mplab c30/bin/bin/../../support/dsPIC30F/gld \
  -Lc:/program files (x86)/microchip/mplab c30/bin/bin/../../lib/dsPIC33E \
  -Lc:/program files (x86)/microchip/mplab c30/bin/bin/../../support/dsPIC33E/gld \
  -Lc:/program files (x86)/microchip/mplab c30/bin/bin/../../lib/dsPIC33F \
  -Lc:/program files (x86)/microchip/mplab c30/bin/bin/../../support/dsPIC33F/gld \
  build/default/production/_ext/1472/utility.o \
  build/default/production/_ext/1472/Asercom.o \
  build/default/production/_ext/1472/DataEEPROM.o \
  build/default/production/_ext/1472/main_c.o \
  build/default/production/_ext/1472/runaccelerometer.o \
  build/default/production/_ext/1472/runbreitenberg_adv.o \
  build/default/production/_ext/1472/rungrounddirection.o \
  build/default/production/_ext/1472/runlocatesound.o \
  build/default/production/_ext/1472/runshow.o \
  build/default/production/_ext/1472/runwallfollow.o \
  build/default/production/_ext/1472/translatorI2C.o \
  build/default/production/_ext/487958404/e_acc.o \
  build/default/production/_ext/487958404/e_ad_conv.o \
  build/default/production/_ext/663421589/e_bluetooth.o \
  build/default/production/_ext/930121020/e_common.o \
  build/default/production/_ext/930121020/e_interrupt.o \
  build/default/production/_ext/930121020/e_po6030k_registers.o \
  build/default/production/_ext/2015481517/e_const_sound.o \
  build/default/production/_ext/2015481517/e_init_codec_slave.o \
  build/default/production/_ext/2015481517/e_init_dci_master.o \
  build/default/production/_ext/2015481517/e_isr_dci.o \
  build/default/production/_ext/2015481517/e_sound.o \
  build/default/production/_ext/2015481517/e_sub_dci_kickoff.o \
  build/default/production/_ext/417766185/e_I2C_master_module.o \
  build/default/production/_ext/417766185/e_I2C_protocol.o \
  build/default/production/_ext/64492303/e_init_uart1.o \
  build/default/production/_ext/64492303/e_uart1_rx_char.o \
  build/default/production/_ext/64492303/e_uart1_tx_char.o \
  build/default/production/_ext/64492303/e_uart2_rx_char.o \
  build/default/production/_ext/64492303/e_uart2_tx_char.o \
  build/default/production/_ext/1259340286/e_init_port.o \
  build/default/production/_ext/1949949662/e_agenda.o \
  build/default/production/_ext/1949949662/e_remote_control.o \
  build/default/production/_ext/1514613776/e_calc_po3030k.o \
  build/default/production/_ext/1514613776/e_calc_po6030k.o \
  build/default/production/_ext/760574787/e_init_uart2.o \
  build/default/production/_ext/879901074/e_led.o \
  build/default/production/_ext/487958404/e_micro.o \
  build/default/production/_ext/879901074/e_motors.o \
  build/default/production/_ext/1514613776/e_po3030k_registers.o \
  build/default/production/_ext/487958404/e_prox.o \
  build/default/production/_ext/1514613776/e_timers.o \
  --defsym=__MPLAB_BUILD=1 \
  --heap=128 \
  --stack=512 \
  -LC:/Program Files/Microchip/MPLAB C30/lib \
  -LC:/Program Files (x86)/Microchip/MPLAB C30/support/dsPIC30F/gld \
  -Map=dist/default/production/demoGCtronic.X.production.map \
  --report-mem \
  -Tp30F6014A.gld.00 \
  -start-group \
  --library=pic30-elf \
  --library=m-elf \
  --library=c-elf \
  -end-group \

Archive member included because of file (symbol)

c:/program files (x86)/microchip/mplab c30/bin/bin/../../lib\libpic30-elf.a(crt0_standard.o)
                              (__resetPRI)
c:/program files (x86)/microchip/mplab c30/bin/bin/../../lib\libpic30-elf.a(data_init_standard.o)
                              c:/program files (x86)/microchip/mplab c30/bin/bin/../../lib\libpic30-elf.a(crt0_standard.o) (__data_init_standard)
c:/program files (x86)/microchip/mplab c30/bin/bin/../../lib\libm-elf.a(addsf3.eo)
                              build/default/production/_ext/1472/runlocatesound.o (___subsf3)
c:/program files (x86)/microchip/mplab c30/bin/bin/../../lib\libm-elf.a(asinf.eo)
                              build/default/production/_ext/1472/runlocatesound.o (_asinf)
c:/program files (x86)/microchip/mplab c30/bin/bin/../../lib\libm-elf.a(atan2f.eo)
                              build/default/production/_ext/1472/runaccelerometer.o (_atan2f)
c:/program files (x86)/microchip/mplab c30/bin/bin/../../lib\libm-elf.a(atanf.eo)
                              c:/program files (x86)/microchip/mplab c30/bin/bin/../../lib\libm-elf.a(atan2f.eo) (_atanf)
c:/program files (x86)/microchip/mplab c30/bin/bin/../../lib\libm-elf.a(divsf3.eo)
                              build/default/production/_ext/1472/runaccelerometer.o (___divsf3)
c:/program files (x86)/microchip/mplab c30/bin/bin/../../lib\libm-elf.a(divsi3.eo)
                              build/default/production/_ext/487958404/e_acc.o (___divsi3)
c:/program files (x86)/microchip/mplab c30/bin/bin/../../lib\libm-elf.a(errno.eo)
                              c:/program files (x86)/microchip/mplab c30/bin/bin/../../lib\libm-elf.a(atan2f.eo) (_errno)
c:/program files (x86)/microchip/mplab c30/bin/bin/../../lib\libm-elf.a(feqltle.eo)
                              build/default/production/_ext/1472/runlocatesound.o (___ltsf2)
c:/program files (x86)/microchip/mplab c30/bin/bin/../../lib\libm-elf.a(fgtge.eo)
                              build/default/production/_ext/1472/runlocatesound.o (___gtsf2)
c:/program files (x86)/microchip/mplab c30/bin/bin/../../lib\libm-elf.a(fixsfsi.eo)
                              build/default/production/_ext/1472/runaccelerometer.o (_(float, int, long long, short, float, short, int))
c:/program files (x86)/microchip/mplab c30/bin/bin/../../lib\libm-elf.a(floatsisf.eo)
                              build/default/production/_ext/1472/runaccelerometer.o (___floatsisf)
c:/program files (x86)/microchip/mplab c30/bin/bin/../../lib\libm-elf.a(floorf.eo)
                              build/default/production/_ext/1472/runaccelerometer.o (_floorf)
c:/program files (x86)/microchip/mplab c30/bin/bin/../../lib\libm-elf.a(fne.eo)
                              build/default/production/_ext/487958404/e_acc.o (___nesf2)
c:/program files (x86)/microchip/mplab c30/bin/bin/../../lib\libm-elf.a(fpack.eo)
                              c:/program files (x86)/microchip/mplab c30/bin/bin/../../lib\libm-elf.a(addsf3.eo) (__fpack)
c:/program files (x86)/microchip/mplab c30/bin/bin/../../lib\libm-elf.a(funpack.eo)
                              c:/program files (x86)/microchip/mplab c30/bin/bin/../../lib\libm-elf.a(atanf.eo) (__funpack)
c:/program files (x86)/microchip/mplab c30/bin/bin/../../lib\libm-elf.a(funpack2.eo)
                              c:/program files (x86)/microchip/mplab c30/bin/bin/../../lib\libm-elf.a(addsf3.eo) (__funpack2)
c:/program files (x86)/microchip/mplab c30/bin/bin/../../lib\libm-elf.a(futil.eo)
                              c:/program files (x86)/microchip/mplab c30/bin/bin/../../lib\libm-elf.a(addsf3.eo) (__fPropagateNaN)
c:/program files (x86)/microchip/mplab c30/bin/bin/../../lib\libm-elf.a(mulsf3.eo)
                              build/default/production/_ext/1472/runaccelerometer.o (___mulsf3)
c:/program files (x86)/microchip/mplab c30/bin/bin/../../lib\libm-elf.a(sqrtf.eo)
                              build/default/production/_ext/487958404/e_acc.o (_sqrtf)
c:/program files (x86)/microchip/mplab c30/bin/bin/../../lib\libm-elf.a(udivsi3.eo)
                              c:/program files (x86)/microchip/mplab c30/bin/bin/../../lib\libm-elf.a(divsi3.eo) (___udivsi3)
c:/program files (x86)/microchip/mplab c30/bin/bin/../../lib\libm-elf.a(asinacosf.eo)
                              c:/program files (x86)/microchip/mplab c30/bin/bin/../../lib\libm-elf.a(asinf.eo) (__asinacosf)
c:/program files (x86)/microchip/mplab c30/bin/bin/../../lib\libm-elf.a(fchop.eo)
                              c:/program files (x86)/microchip/mplab c30/bin/bin/../../lib\libm-elf.a(floorf.eo) (__fchop)
c:/program files (x86)/microchip/mplab c30/bin/bin/../../lib\libm-elf.a(fcompare.eo)
                              c:/program files (x86)/microchip/mplab c30/bin/bin/../../lib\libm-elf.a(feqltle.eo) (__fcompare)
c:/program files (x86)/microchip/mplab c30/bin/bin/../../lib\libc-elf.a(toupper.XXeo)
                              build/default/production/_ext/1472/Asercom.o (_toupper)
c:/program files (x86)/microchip/mplab c30/bin/bin/../../lib\libc-elf.a(atoi.XXeo)
                              build/default/production/_ext/663421589/e_bluetooth.o (_atoi)
c:/program files (x86)/microchip/mplab c30/bin/bin/../../lib\libc-elf.a(exit.XXeo)
                              build/default/production/_ext/1949949662/e_agenda.o (_exit)
c:/program files (x86)/microchip/mplab c30/bin/bin/../../lib\libc-elf.a(memset.XXeo)
                              build/default/production/_ext/1472/main_c.o (_memset)
c:/program files (x86)/microchip/mplab c30/bin/bin/../../lib\libc-elf.a(stdclean.XXeo)
                              c:/program files (x86)/microchip/mplab c30/bin/bin/../../lib\libc-elf.a(exit.XXeo) (__cleanup)
c:/program files (x86)/microchip/mplab c30/bin/bin/../../lib\libc-elf.a(strlen.XXeo)
                              build/default/production/_ext/1472/Asercom.o (_strlen)
c:/program files (x86)/microchip/mplab c30/bin/bin/../../lib\libc-elf.a(_iob.XXeo)
                              c:/program files (x86)/microchip/mplab c30/bin/bin/../../lib\libc-elf.a(stdclean.XXeo) (__iob)
c:/program files (x86)/microchip/mplab c30/bin/bin/../../lib\libc-elf.a(sprintf_cdnopuxX.XXeo)
                              build/default/production/_ext/1472/Asercom.o (__sprintf_cdnopuxX)
c:/program files (x86)/microchip/mplab c30/bin/bin/../../lib\libc-elf.a(sscanf_cdnopuxX.XXeo)
                              build/default/production/_ext/1472/Asercom.o (__sscanf_cdnopuxX)
c:/program files (x86)/microchip/mplab c30/bin/bin/../../lib\libc-elf.a(doscan_cdnopuxX.XXeo)
                              c:/program files (x86)/microchip/mplab c30/bin/bin/../../lib\libc-elf.a(sscanf_cdnopuxX.XXeo) (__vfscanf_cdnopuxX)
c:/program files (x86)/microchip/mplab c30/bin/bin/../../lib\libc-elf.a(doprnt_cdnopuxX.XXeo)
                              c:/program files (x86)/microchip/mplab c30/bin/bin/../../lib\libc-elf.a(sprintf_cdnopuxX.XXeo) (__vfprintf_cdnopuxX)
c:/program files (x86)/microchip/mplab c30/bin/bin/../../lib\libc-elf.a(sprintf_cdfFnopuxX.XXeo)
                              build/default/production/_ext/1472/runaccelerometer.o (__sprintf_cdfFnopuxX)
c:/program files (x86)/microchip/mplab c30/bin/bin/../../lib\libc-elf.a(doprnt_cdfFnopuxX.XXeo)
                              c:/program files (x86)/microchip/mplab c30/bin/bin/../../lib\libc-elf.a(sprintf_cdfFnopuxX.XXeo) (__vfprintf_cdfFnopuxX)
c:/program files (x86)/microchip/mplab c30/bin/bin/../../lib\libc-elf.a(sprintf_cdfFnopsuxX.XXeo)
                              (__sprintf_cdfFnopsuxX)
c:/program files (x86)/microchip/mplab c30/bin/bin/../../lib\libc-elf.a(doprnt_cdfFnopsuxX.XXeo)
                              c:/program files (x86)/microchip/mplab c30/bin/bin/../../lib\libc-elf.a(sprintf_cdfFnopsuxX.XXeo) (__vfprintf_cdfFnopsuxX)
c:/program files (x86)/microchip/mplab c30/bin/bin/../../lib\libc-elf.a(sprintf_cdnopsuxX.XXeo)
                              build/default/production/_ext/1472/main_c.o (__sprintf_cdnopsuxX)
c:/program files (x86)/microchip/mplab c30/bin/bin/../../lib\libc-elf.a(doprnt_cdnopsuxX.XXeo)
                              c:/program files (x86)/microchip/mplab c30/bin/bin/../../lib\libc-elf.a(sprintf_cdnopsuxX.XXeo) (__vfprintf_cdnopsuxX)
c:/program files (x86)/microchip/mplab c30/bin/bin/../../lib\libc-elf.a(sscanf_s.XXeo)
                              build/default/production/_ext/1472/main_c.o (__sscanf_0)
c:/program files (x86)/microchip/mplab c30/bin/bin/../../lib\libc-elf.a(doscan_s.XXeo)
                              c:/program files (x86)/microchip/mplab c30/bin/bin/../../lib\libc-elf.a(sscanf_s.XXeo) (__vfscanf_s)
c:/program files (x86)/microchip/mplab c30/bin/bin/../../lib\libc-elf.a(malloc.XXeo)
                              build/default/production/_ext/1949949662/e_agenda.o (_malloc)
c:/program files (x86)/microchip/mplab c30/bin/bin/../../lib\libc-elf.a(isalpha.XXelo)
                              c:/program files (x86)/microchip/mplab c30/bin/bin/../../lib\libc-elf.a(doscan_cdnopuxX.XXeo) (_isalpha)
c:/program files (x86)/microchip/mplab c30/bin/bin/../../lib\libc-elf.a(isspace.XXelo)
                              c:/program files (x86)/microchip/mplab c30/bin/bin/../../lib\libc-elf.a(doscan_cdnopuxX.XXeo) (_isspace)
c:/program files (x86)/microchip/mplab c30/bin/bin/../../lib\libc-elf.a(isupper.XXelo)
                              c:/program files (x86)/microchip/mplab c30/bin/bin/../../lib\libc-elf.a(doscan_cdnopuxX.XXeo) (_isupper)
c:/program files (x86)/microchip/mplab c30/bin/bin/../../lib\libc-elf.a(tolower.XXelo)
                              c:/program files (x86)/microchip/mplab c30/bin/bin/../../lib\libc-elf.a(doscan_cdnopuxX.XXeo) (_tolower)
c:/program files (x86)/microchip/mplab c30/bin/bin/../../lib\libc-elf.a(fclose.XXelo)
                              c:/program files (x86)/microchip/mplab c30/bin/bin/../../lib\libc-elf.a(stdclean.XXeo) (_fclose)
c:/program files (x86)/microchip/mplab c30/bin/bin/../../lib\libc-elf.a(fgetc.XXelo)
                              c:/program files (x86)/microchip/mplab c30/bin/bin/../../lib\libc-elf.a(doscan_cdnopuxX.XXeo) (_fgetc)
c:/program files (x86)/microchip/mplab c30/bin/bin/../../lib\libc-elf.a(fputc.XXelo)
                              c:/program files (x86)/microchip/mplab c30/bin/bin/../../lib\libc-elf.a(doprnt_cdnopuxX.XXeo) (_fputc)
c:/program files (x86)/microchip/mplab c30/bin/bin/../../lib\libc-elf.a(powers.XXelo)
                              c:/program files (x86)/microchip/mplab c30/bin/bin/../../lib\libc-elf.a(doprnt_cdfFnopuxX.XXeo) (__npowers_)
c:/program files (x86)/microchip/mplab c30/bin/bin/../../lib\libc-elf.a(tfiles.XXelo)
                              c:/program files (x86)/microchip/mplab c30/bin/bin/../../lib\libc-elf.a(fclose.XXelo) (__tfilesptr)
c:/program files (x86)/microchip/mplab c30/bin/bin/../../lib\libc-elf.a(ungetc.XXelo)
                              c:/program files (x86)/microchip/mplab c30/bin/bin/../../lib\libc-elf.a(doscan_cdnopuxX.XXeo) (_ungetc)
c:/program files (x86)/microchip/mplab c30/bin/bin/../../lib\libc-elf.a(buf.XXeo)
                              c:/program files (x86)/microchip/mplab c30/bin/bin/../../lib\libc-elf.a(fclose.XXelo) (__buffree)
c:/program files (x86)/microchip/mplab c30/bin/bin/../../lib\libc-elf.a(fflush.XXeo)
                              c:/program files (x86)/microchip/mplab c30/bin/bin/../../lib\libc-elf.a(fclose.XXelo) (_fflush)
c:/program files (x86)/microchip/mplab c30/bin/bin/../../lib\libc-elf.a(filbuf.XXeo)
                              c:/program files (x86)/microchip/mplab c30/bin/bin/../../lib\libc-elf.a(fgetc.XXelo) (__filbuf)
c:/program files (x86)/microchip/mplab c30/bin/bin/../../lib\libc-elf.a(flsbuf.XXeo)
                              c:/program files (x86)/microchip/mplab c30/bin/bin/../../lib\libc-elf.a(fputc.XXelo) (__flsbuf)
c:/program files (x86)/microchip/mplab c30/bin/bin/../../lib\libc-elf.a(memcpy.XXeo)
                              c:/program files (x86)/microchip/mplab c30/bin/bin/../../lib\libc-elf.a(malloc.XXeo) (_memcpy)
c:/program files (x86)/microchip/mplab c30/bin/bin/../../lib\libpic30-elf.a(_exit.eo)
                              c:/program files (x86)/microchip/mplab c30/bin/bin/../../lib\libc-elf.a(exit.XXeo) (__exit)
c:/program files (x86)/microchip/mplab c30/bin/bin/../../lib\libpic30-elf.a(read.eo)
                              c:/program files (x86)/microchip/mplab c30/bin/bin/../../lib\libc-elf.a(filbuf.XXeo) (_read)
c:/program files (x86)/microchip/mplab c30/bin/bin/../../lib\libpic30-elf.a(close.eo)
                              c:/program files (x86)/microchip/mplab c30/bin/bin/../../lib\libc-elf.a(fclose.XXelo) (_close)
c:/program files (x86)/microchip/mplab c30/bin/bin/../../lib\libpic30-elf.a(write.eo)
                              c:/program files (x86)/microchip/mplab c30/bin/bin/../../lib\libc-elf.a(fputc.XXelo) (_write)
c:/program files (x86)/microchip/mplab c30/bin/bin/../../lib\libpic30-elf.a(remove.eo)
                              c:/program files (x86)/microchip/mplab c30/bin/bin/../../lib\libc-elf.a(fclose.XXelo) (_remove)
c:/program files (x86)/microchip/mplab c30/bin/bin/../../lib\libpic30-elf.a(sbrk.eo)
                              c:/program files (x86)/microchip/mplab c30/bin/bin/../../lib\libc-elf.a(malloc.XXeo) (_sbrk)
c:/program files (x86)/microchip/mplab c30/bin/bin/../../lib\libpic30-elf.a(c30_uart.eo)
                              c:/program files (x86)/microchip/mplab c30/bin/bin/../../lib\libpic30-elf.a(read.eo) (___C30_UART)
c:/program files (x86)/microchip/mplab c30/bin/bin/../../lib\libpic30-elf.a(brk.elo)
                              c:/program files (x86)/microchip/mplab c30/bin/bin/../../lib\libpic30-elf.a(sbrk.eo) (_brk)
c:/program files (x86)/microchip/mplab c30/bin/bin/../../lib\libm-elf.a(adddf3.eo)
                              c:/program files (x86)/microchip/mplab c30/bin/bin/../../lib\libc-elf.a(doprnt_cdfFnopuxX.XXeo) (___adddf3)
c:/program files (x86)/microchip/mplab c30/bin/bin/../../lib\libm-elf.a(deqltle.eo)
                              c:/program files (x86)/microchip/mplab c30/bin/bin/../../lib\libc-elf.a(doprnt_cdfFnopuxX.XXeo) (___ltdf2)
c:/program files (x86)/microchip/mplab c30/bin/bin/../../lib\libm-elf.a(dgtge.eo)
                              c:/program files (x86)/microchip/mplab c30/bin/bin/../../lib\libc-elf.a(doprnt_cdfFnopuxX.XXeo) (___gedf2)
c:/program files (x86)/microchip/mplab c30/bin/bin/../../lib\libm-elf.a(divdf3.eo)
                              c:/program files (x86)/microchip/mplab c30/bin/bin/../../lib\libc-elf.a(doprnt_cdfFnopuxX.XXeo) (___divdf3)
c:/program files (x86)/microchip/mplab c30/bin/bin/../../lib\libm-elf.a(dne.eo)
                              c:/program files (x86)/microchip/mplab c30/bin/bin/../../lib\libc-elf.a(doprnt_cdfFnopuxX.XXeo) (___nedf2)
c:/program files (x86)/microchip/mplab c30/bin/bin/../../lib\libm-elf.a(dpack.eo)
                              c:/program files (x86)/microchip/mplab c30/bin/bin/../../lib\libm-elf.a(adddf3.eo) (__dpack)
c:/program files (x86)/microchip/mplab c30/bin/bin/../../lib\libm-elf.a(dunpack2.eo)
                              c:/program files (x86)/microchip/mplab c30/bin/bin/../../lib\libm-elf.a(adddf3.eo) (__dunpack2)
c:/program files (x86)/microchip/mplab c30/bin/bin/../../lib\libm-elf.a(extendsfdf.eo)
                              c:/program files (x86)/microchip/mplab c30/bin/bin/../../lib\libc-elf.a(doprnt_cdfFnopuxX.XXeo) (___extendsfdf2)
c:/program files (x86)/microchip/mplab c30/bin/bin/../../lib\libm-elf.a(fixunsdfdi.eo)
                              c:/program files (x86)/microchip/mplab c30/bin/bin/../../lib\libc-elf.a(doprnt_cdfFnopuxX.XXeo) (___fixunsdfdi)
c:/program files (x86)/microchip/mplab c30/bin/bin/../../lib\libm-elf.a(floatdidf.eo)
                              c:/program files (x86)/microchip/mplab c30/bin/bin/../../lib\libc-elf.a(doprnt_cdfFnopuxX.XXeo) (___floatdidf)
c:/program files (x86)/microchip/mplab c30/bin/bin/../../lib\libm-elf.a(frexpf.eo)
                              c:/program files (x86)/microchip/mplab c30/bin/bin/../../lib\libc-elf.a(doprnt_cdfFnopuxX.XXeo) (_frexpf)
c:/program files (x86)/microchip/mplab c30/bin/bin/../../lib\libm-elf.a(muldf3.eo)
                              c:/program files (x86)/microchip/mplab c30/bin/bin/../../lib\libc-elf.a(doprnt_cdfFnopuxX.XXeo) (___muldf3)
c:/program files (x86)/microchip/mplab c30/bin/bin/../../lib\libm-elf.a(subdf3.eo)
                              c:/program files (x86)/microchip/mplab c30/bin/bin/../../lib\libc-elf.a(doprnt_cdfFnopuxX.XXeo) (___subdf3)
c:/program files (x86)/microchip/mplab c30/bin/bin/../../lib\libm-elf.a(truncdfsf.eo)
                              c:/program files (x86)/microchip/mplab c30/bin/bin/../../lib\libc-elf.a(doprnt_cdfFnopuxX.XXeo) (___truncdfsf2)
c:/program files (x86)/microchip/mplab c30/bin/bin/../../lib\libm-elf.a(mulsi3.eo)
                              c:/program files (x86)/microchip/mplab c30/bin/bin/../../lib\libc-elf.a(doscan_cdnopuxX.XXeo) (___mulsi3)
c:/program files (x86)/microchip/mplab c30/bin/bin/../../lib\libm-elf.a(divmoddi3.eo)
                              c:/program files (x86)/microchip/mplab c30/bin/bin/../../lib\libc-elf.a(doprnt_cdnopuxX.XXeo) (___udivdi3)
c:/program files (x86)/microchip/mplab c30/bin/bin/../../lib\libm-elf.a(_frexpf.eo)
                              c:/program files (x86)/microchip/mplab c30/bin/bin/../../lib\libm-elf.a(frexpf.eo) (__frexpf)
c:/program files (x86)/microchip/mplab c30/bin/bin/../../lib\libm-elf.a(dcompare.eo)
                              c:/program files (x86)/microchip/mplab c30/bin/bin/../../lib\libm-elf.a(deqltle.eo) (__dcompare)
c:/program files (x86)/microchip/mplab c30/bin/bin/../../lib\libm-elf.a(dpropagateNaN.eo)
                              c:/program files (x86)/microchip/mplab c30/bin/bin/../../lib\libm-elf.a(dunpack2.eo) (__dPropagateNaN)
c:/program files (x86)/microchip/mplab c30/bin/bin/../../lib\libm-elf.a(dtype.eo)
                              c:/program files (x86)/microchip/mplab c30/bin/bin/../../lib\libm-elf.a(dcompare.eo) (__dtype)
c:/program files (x86)/microchip/mplab c30/bin/bin/../../lib\libm-elf.a(dunpack.eo)
                              c:/program files (x86)/microchip/mplab c30/bin/bin/../../lib\libm-elf.a(dunpack2.eo) (__dunpack)


Selected CodeGuard Options:
  FGS:GWRP:GWRP_OFF
  FGS:GCP:GSS_OFF

CodeGuard FLASH Memory:
  boot    (none)
  secure  (none)
  general 0x100 to 0x17ffc

CodeGuard RAM Memory:
  general 0x800 to 0x27ff
  secure  (none)
  boot    (none)

CodeGuard EEPROM Memory:
  general 0x7ff000 to 0x7fffff
  secure  (none)
  boot    (none)


Program Memory  [Origin = 0x100, Length = 0x17efe]

section                    address   length (PC units)   length (bytes) (dec)
-------                    -------   -----------------   --------------------
.text                        0x100              0x25fa          0x38f7  (14583)
.const                      0x26fa               0xaba          0x1017  (4119)
.sound_samples              0x31b4              0x94c8          0xdf2c  (57132)
.text                       0xc67c              0x5b66          0x8919  (35097)
.dinit                     0x121e2               0x4c2           0x723  (1827)
.text                      0x126a4              0x2836          0x3c51  (15441)

                     Total program memory used (bytes):        0x1f4c7  (128199) 87%


Data Memory  [Origin = 0x800, Length = 0x2000]

section                    address      alignment gaps    total length  (dec)
-------                    -------      --------------    -------------------
.data                        0x800                   0            0x88  (136)
.ndata                       0x888                   0             0x8  (8)
.data                        0x890                   0             0xc  (12)
.nbss                        0x89c                   0             0x8  (8)
.bss                         0x8a4                   0          0x147e  (5246)
.data                       0x1d22                   0           0x160  (352)
.bss                        0x1e82                   0           0x150  (336)
.data                       0x1fd2                   0           0x2ea  (746)
.bss                        0x22bc                   0            0x72  (114)
.dconst                     0x232e                   0            0x2a  (42)
.data                       0x2358                   0            0x46  (70)
.bss                        0x239e                   0            0x64  (100)
.data                       0x2402                   0             0x6  (6)
.bss                        0x2408                   0            0x18  (24)
.data                       0x2420                   0             0x8  (8)
.bss                        0x2428                   0             0x4  (4)
.data                       0x242c                   0             0x2  (2)
.bss                        0x242e                   0             0xa  (10)
.data                       0x2438                   0             0x2  (2)
.bss                        0x243a                   0             0x2  (2)
.heap                       0x243c                   0            0x80  (128)

                        Total data memory used (bytes):         0x1cbc  (7356) 89%


Dynamic Memory Usage

region                     address                      maximum length  (dec)
------                     -------                      ---------------------
heap                        0x243c                                0x80  (128)
stack                       0x24bc                               0x344  (836)

                        Maximum dynamic memory (bytes):          0x3c4  (964)


External Symbols in Data Memory (by address):

                    0x0800                  _U1RXBuf
                    0x0840                  _U1RXRcvCnt
                    0x0842                  _U1RXReadCnt
                    0x0844                  _U2RXBuf
                    0x0884                  _U2RXRcvCnt
                    0x0886                  _U2RXReadCnt
                    0x0888                  _e_stop_flag
                    0x088a                  _e_dci_unavailable
                    0x088c                  e_samples_count
                    0x088e                  e_actual_page
                    0x0890                  U1TXPtr
                    0x0892                  U1TXLength
                    0x0894                  U1TXOk
                    0x0896                  U2TXPtr
                    0x0898                  U2TXLength
                    0x089a                  U2TXOk
                    0x089c                  __poxxxx_current_row
                    0x089e                  __poxxxx_row
                    0x08a0                  e_tone_ptr
                    0x08a8                  _buffer
                    0x1654                  _selector
                    0x1656                  _c
                    0x165e                  _e_mic_scan
                    0x18b6                  _e_ambient_ir
                    0x18ca                  _e_ambient_and_reflected_ir
                    0x18de                  _last_mic_id
                    0x18e0                  _mean_table
                    0x1b38                  _mean_nb
                    0x1b3a                  _mean
                    0x1b46                  _signal_max
                    0x1b52                  _signal_min
                    0x1b5e                  _e_bt_local_paired_device
                    0x1b8e                  _e_bt_present_device
                    0x1cb0                  _e_bt_present_epuck
                    0x1d1e                  _local_bt_PIN
                    0x1d22                  __npowers_
                    0x1dd2                  __powers_
                    0x1e84                  __poxxxx_buffer
                    0x1e86                  __poxxxx_img_ready
                    0x1e88                  __poxxxx_line_conf
                    0x1fd2                  _e_acc_scan
                    0x20fe                  _e_last_mic_scan_id
                    0x2100                  _e_last_acc_scan_id
                    0x227a                  _ui_lin
                    0x227c                  _factor_array
                    0x229c                  _matrix_prox
                    0x22fc                  _i
                    0x22fe                  _s
                    0x2300                  _m
                    0x2302                  _potential
                    0x230a                  _speed
                    0x230e                  _ProxSensOffBuf
                    0x2358                  __Files
                    0x235a                  __iob
                    0x237e                  _follow_weightleft
                    0x238e                  _follow_weightright
                    0x23ca                  _follow_sensorzero
                    0x23ea                  __allocx
                    0x23ee                  __alloct
                    0x23f0                  __allocp
                    0x23f2                  __allocs
                    0x23fa                  _e_i2c_mode
                    0x23fc                  _e_interrupts
                    0x2408                  _accx0
                    0x240a                  _accy0
                    0x240c                  _accz0
                    0x241a                  __sobuf
                    0x241c                  __sibuf
                    0x241e                  __outdone
                    0x242e                  __atexitptr
                    0x2434                  __tfilesptr
                    0x2438                  ___C30_UART
                    0x243a                  ___curbrk

External Symbols in Data Memory (by name):

                    0x0892                  U1TXLength
                    0x0894                  U1TXOk
                    0x0890                  U1TXPtr
                    0x0898                  U2TXLength
                    0x089a                  U2TXOk
                    0x0896                  U2TXPtr
                    0x230e                  _ProxSensOffBuf
                    0x0800                  _U1RXBuf
                    0x0840                  _U1RXRcvCnt
                    0x0842                  _U1RXReadCnt
                    0x0844                  _U2RXBuf
                    0x0884                  _U2RXRcvCnt
                    0x0886                  _U2RXReadCnt
                    0x2358                  __Files
                    0x2438                  ___C30_UART
                    0x243a                  ___curbrk
                    0x23f0                  __allocp
                    0x23f2                  __allocs
                    0x23ee                  __alloct
                    0x23ea                  __allocx
                    0x242e                  __atexitptr
                    0x235a                  __iob
                    0x1d22                  __npowers_
                    0x241e                  __outdone
                    0x1dd2                  __powers_
                    0x1e84                  __poxxxx_buffer
                    0x089c                  __poxxxx_current_row
                    0x1e86                  __poxxxx_img_ready
                    0x1e88                  __poxxxx_line_conf
                    0x089e                  __poxxxx_row
                    0x241c                  __sibuf
                    0x241a                  __sobuf
                    0x2434                  __tfilesptr
                    0x2408                  _accx0
                    0x240a                  _accy0
                    0x240c                  _accz0
                    0x08a8                  _buffer
                    0x1656                  _c
                    0x1fd2                  _e_acc_scan
                    0x18ca                  _e_ambient_and_reflected_ir
                    0x18b6                  _e_ambient_ir
                    0x1b5e                  _e_bt_local_paired_device
                    0x1b8e                  _e_bt_present_device
                    0x1cb0                  _e_bt_present_epuck
                    0x088a                  _e_dci_unavailable
                    0x23fa                  _e_i2c_mode
                    0x23fc                  _e_interrupts
                    0x2100                  _e_last_acc_scan_id
                    0x20fe                  _e_last_mic_scan_id
                    0x165e                  _e_mic_scan
                    0x0888                  _e_stop_flag
                    0x227c                  _factor_array
                    0x23ca                  _follow_sensorzero
                    0x237e                  _follow_weightleft
                    0x238e                  _follow_weightright
                    0x22fc                  _i
                    0x18de                  _last_mic_id
                    0x1d1e                  _local_bt_PIN
                    0x2300                  _m
                    0x229c                  _matrix_prox
                    0x1b3a                  _mean
                    0x1b38                  _mean_nb
                    0x18e0                  _mean_table
                    0x2302                  _potential
                    0x22fe                  _s
                    0x1654                  _selector
                    0x1b46                  _signal_max
                    0x1b52                  _signal_min
                    0x230a                  _speed
                    0x227a                  _ui_lin
                    0x088e                  e_actual_page
                    0x088c                  e_samples_count
                    0x08a0                  e_tone_ptr

External Symbols in Program Memory (by address):

                  0x000100                  __resetPRI
                  0x000122                  __psv_init
                  0x000132                  __data_init
                  0x000132                  __data_init_standard
                  0x0001b0                  __DefaultInterrupt
                  0x0001b4                  ___subsf3
                  0x0001b6                  ___addsf3
                  0x000270                  _asinf
                  0x000274                  _atan2f
                  0x0002ae                  _atanf
                  0x000378                  ___divsf3
                  0x0003fc                  ___divsi3
                  0x00041a                  ___lesf2
                  0x00041a                  ___ltsf2
                  0x00041a                  ___eqsf2
                  0x00041e                  ___gtsf2
                  0x00041e                  ___gesf2
                  0x000422                  ___fixsfsi
                  0x000464                  ___floatsisf
                  0x0004ba                  _floorf
                  0x0004ca                  ___nesf2
                  0x0004ce                  __fpack
                  0x00051a                  __funpack
                  0x000544                  __funpack2
                  0x000554                  __fPropagateNaN
                  0x000566                  __fbopExit
                  0x00056e                  __fbopReturnNaN
                  0x000574                  ___mulsf3
                  0x0005dc                  _sqrtf
                  0x000646                  ___udivsi3
                  0x000666                  __asinacosf
                  0x000734                  __fchop
                  0x000782                  __fcompare
                  0x0007b8                  _toupper
                  0x0007c6                  _atoi
                  0x00080e                  _exit
                  0x000816                  _memset
                  0x000824                  __cleanup
                  0x000840                  _strlen
                  0x00084c                  __sscanf_cdnopuxX
                  0x0008c0                  __vfscanf_cdnopuxX
                  0x000b02                  __sprintf_cdfFnopuxX
                  0x000b02                  __sprintf_cdnopsuxX
                  0x000b02                  __sprintf_cdnopuxX
                  0x000b02                  __sprintf_cdfFnopsuxX
                  0x000bde                  __vfprintf_cdfFnopuxX
                  0x000bde                  __vfprintf_cdnopuxX
                  0x000bde                  __vfprintf_cdfFnopsuxX
                  0x000bde                  __vfprintf_cdnopsuxX
                  0x0015da                  __sscanf_s
                  0x0015da                  __sscanf_0
                  0x00164e                  __vfscanf_0
                  0x00164e                  __vfscanf_s
                  0x001890                  _malloc
                  0x0019b4                  _free
                  0x0019c0                  _realloc
                  0x001a1a                  _isalpha
                  0x001a2e                  _isspace
                  0x001a3e                  _isupper
                  0x001a4a                  _tolower
                  0x001a58                  _fclose
                  0x001ac8                  _fgetc
                  0x001bc4                  _ungetc
                  0x001c06                  __bufallo
                  0x001c24                  __buffree
                  0x001c2c                  _fflush
                  0x001c80                  __filbuf
                  0x001da2                  _memcpy
                  0x001f0e                  ___adddf3
                  0x002008                  ___ledf2
                  0x002008                  ___eqdf2
                  0x002008                  ___ltdf2
                  0x002012                  ___gedf2
                  0x002012                  ___gtdf2
                  0x00201c                  ___divdf3
                  0x0020d0                  ___nedf2
                  0x0020da                  __dpack
                  0x002132                  __dunpack2
                  0x002154                  __dreturnNaN
                  0x00215a                  __dunpack2exit
                  0x002164                  ___extendsfdf2
                  0x0021a2                  ___fixunsdfdi
                  0x002204                  ___floatdidf
                  0x002272                  _frexpf
                  0x002278                  ___muldf3
                  0x002362                  ___subdf3
                  0x002366                  ___truncdfsf2
                  0x0023bc                  ___mulsi3
                  0x0023bc                  ___mulp32eds3
                  0x0023bc                  ___mulp32peds3
                  0x0023ee                  ___udivmoddi3
                  0x002516                  ___udivdi3
                  0x002524                  ___umoddi3
                  0x00252c                  ___divdi3
                  0x002598                  ___moddi3
                  0x002600                  __frexpf
                  0x00261a                  __dcompare
                  0x00266c                  __dPropagateNaN
                  0x002688                  __dtype
                  0x0026ac                  __dunpack
                  0x0031b4                  e_sound_sample
                  0x00c67c                  _run_asercom
                  0x00dfb4                  _e_bt_find_epuck
                  0x00e134                  _e_bt_connect_epuck
                  0x00e162                  _e_bt_reset
                  0x00e216                  _e_bt_factory_reset
                  0x00e29a                  _e_bt_tranparent_mode
                  0x00e324                  _e_bt_exit_tranparent_mode
                  0x00e358                  _e_bt_read_local_pin_number
                  0x00e412                  _e_bt_read_local_name
                  0x00e4be                  _e_bt_write_local_pin_number
                  0x00e59e                  _e_bt_write_local_name
                  0x00e680                  _e_bt_inquiry
                  0x00e7aa                  _e_bt_get_friendly_name
                  0x00e89a                  _e_bt_etablish_SPP_link
                  0x00e98a                  _e_bt_release_SPP_link
                  0x00eab2                  _e_bt_send_SPP_data
                  0x00eb9c                  _e_bt_list_local_paired_device
                  0x00ec4c                  _e_bt_remove_local_paired_device
                  0x00ed2e                  _e_bt_set_event_filter
                  0x00edc8                  _e_bt_get_event_filter
                  0x00ee4c                  _e_po3030k_write_cam_registers
                  0x00ee80                  _e_po3030k_read_cam_registers
                  0x00eeb8                  _e_po3030k_set_color_mode
                  0x00eefc                  _e_po3030k_set_sampling_mode
                  0x00ef2a                  _e_po3030k_set_speed
                  0x00ef74                  _e_po3030k_set_wx
                  0x00efd0                  _e_po3030k_set_wy
                  0x00f026                  _e_po3030k_set_vsync
                  0x00f0a2                  _e_po3030k_set_mirror
                  0x00f0e0                  _e_po3030k_set_register
                  0x00f11a                  _e_po3030k_get_register
                  0x00f156                  _e_po3030k_set_bias
                  0x00f16a                  _e_po3030k_set_color_gain
                  0x00f1a8                  _e_po3030k_set_integr_time
                  0x00f1d6                  _e_po3030k_set_adc_offset
                  0x00f1e2                  _e_po3030k_set_sepia
                  0x00f208                  _e_po3030k_set_lens_gain
                  0x00f224                  _e_po3030k_set_edge_prop
                  0x00f240                  _e_po3030k_set_gamma_coef
                  0x00f282                  _e_po3030k_write_gamma_coef
                  0x00f2ac                  _e_po3030k_sync_register_array
                  0x00f30a                  _e_po3030k_SetColorMatrix
                  0x00f336                  _e_po3030k_set_cb_cr_gain
                  0x00f34a                  _e_po3030k_set_brigh_contr
                  0x00f35e                  _e_po3030k_set_sepia_tone
                  0x00f372                  _e_po3030k_set_ww
                  0x00f386                  _e_po3030k_set_awb_ae_tol
                  0x00f3a2                  _e_po3030k_set_ae_speed
                  0x00f3c0                  _e_po3030k_set_exposure
                  0x00f3ec                  _e_po3030k_set_ref_exposure
                  0x00f3f8                  _e_po3030k_set_max_min_exp
                  0x00f426                  _e_po3030k_set_max_min_awb
                  0x00f45a                  _e_po3030k_set_weight_win
                  0x00f520                  _e_po3030k_set_awb_ae
                  0x00f55e                  _e_po3030k_set_flicker_mode
                  0x00f584                  _e_po3030k_set_flicker_detection
                  0x00f68e                  _e_po3030k_set_flicker_man_set
                  0x00f772                  _init_sound
                  0x00f862                  _record_sound
                  0x00f874                  _check_for_event
                  0x00f96e                  _filter_signal
                  0x00fa16                  _calculate_average
                  0x00fb3e                  _calculate_direction
                  0x00fce2                  _find_delta_t
                  0x00fd98                  _show_led
                  0x00fe7a                  _turn_to_direction
                  0x00ff14                  _run_locatesound
                  0x01006c                  _e_set_led
                  0x01030e                  _e_led_clear
                  0x010324                  _e_set_body_led
                  0x010364                  _e_set_front_led
                  0x0103a4                  _e_blink_led
                  0x01047a                  _e_blink_led0
                  0x01049c                  _e_blink_led1
                  0x0104b6                  _e_blink_led2
                  0x0104d8                  _e_blink_led3
                  0x0104fa                  _e_blink_led4
                  0x01051c                  _e_blink_led5
                  0x01053e                  _e_blink_led6
                  0x010560                  _e_blink_led7
                  0x01057a                  _e_start_led_blinking
                  0x01058a                  _e_stop_led_blinking
                  0x010596                  _e_set_blinking_cycle
                  0x0105aa                  _snake_led
                  0x01061a                  _flow_led
                  0x0106a2                  _k2000_led
                  0x010742                  _right_led
                  0x0107b2                  _left_led
                  0x010822                  _main
                  0x010fb4                  _e_get_acc
                  0x011028                  _e_get_acc_filtered
                  0x0110aa                  _calculate_acc_raw
                  0x0110da                  _calculate_acc_spherical
                  0x011206                  _e_acc_calibr
                  0x01122a                  _e_read_acc_spheric
                  0x011268                  _e_read_inclination
                  0x011274                  _e_read_orientation
                  0x011280                  _e_read_acc
                  0x01128c                  _e_read_acc_xyz
                  0x0112b0                  _e_read_acc_x
                  0x0112ba                  _e_read_acc_y
                  0x0112c4                  _e_read_acc_z
                  0x0112ce                  _e_display_angle
                  0x0115d4                  _e_init_ad_scan
                  0x0116be                  __ADCInterrupt
                  0x011bba                  _e_ad_is_acquisition_completed
                  0x011bc6                  _e_ad_is_array_filled
                  0x011bd2                  _e_ad_scan_on
                  0x011bda                  _e_ad_scan_off
                  0x011be2                  _run_CameraTurn
                  0x011dc6                  _run_SensDispl
                  0x011fa2                  _run_DustCleaner
                  0x0126a4                  _acc_calibrate
                  0x012768                  _run_accelerometer
                  0x012a2a                  _idle_i2c
                  0x012a5a                  _e_i2c_init
                  0x012a94                  _e_i2c_reset
                  0x012adc                  _e_i2c_enable
                  0x012ae8                  _e_i2c_disable
                  0x012af4                  _e_i2c_start
                  0x012b3c                  _e_i2c_restart
                  0x012b84                  _e_i2c_stop
                  0x012bbe                  _e_i2c_ack
                  0x012c28                  _e_i2c_nack
                  0x012c92                  _e_i2c_read
                  0x012d42                  _e_i2c_write
                  0x012d82                  __MI2CInterrupt
                  0x012d9c                  _run_left_motor
                  0x012e84                  _run_right_motor
                  0x012f6c                  _e_init_motors
                  0x012f82                  _e_set_speed_left
                  0x013006                  _e_set_speed_right
                  0x01308a                  _e_set_speed
                  0x0130cc                  _e_get_steps_left
                  0x0130d4                  _e_set_steps_left
                  0x0130e0                  _e_get_steps_right
                  0x0130e8                  _e_set_steps_right
                  0x0130f4                  _e_po6030k_set_bank
                  0x01310e                  _e_po6030k_write_register
                  0x013130                  _e_po6030k_read_register
                  0x013152                  _e_po6030k_set_bayer_clkdiv
                  0x013162                  _e_po6030k_set_pclkdiv
                  0x013296                  _e_po6030k_set_mode
                  0x0132ee                  _e_po6030k_set_wx
                  0x013344                  _e_po6030k_set_wy
                  0x013350                  _e_po6030k_set_vsync
                  0x0133b0                  _e_po6030k_set_sketch_mode
                  0x01340e                  _e_po6030k_set_mirror
                  0x013448                  _follow_sensor_calibrate
                  0x013530                  _followgetSelectorValue
                  0x013568                  _followGetSensorValues
                  0x0135a2                  _followsetSpeed
                  0x0135e4                  _run_wallfollow
                  0x013766                  _shock_neuron
                  0x013886                  _lin_speed_calc
                  0x013944                  _angle_speed_calc
                  0x013980                  _follow_neuron
                  0x0139de                  _run_breitenberg_follower
                  0x013a08                  _run_breitenberg_shocker
                  0x013a32                  _e_po6030k_config_cam
                  0x013cba                  _e_po6030k_get_bytes_per_pixel
                  0x013cf2                  _e_po3030k_config_cam
                  0x013f46                  _e_po3030k_get_bytes_per_pixel
                  0x013f7e                  _e_start_agendas_processing
                  0x013fa0                  _e_end_agendas_processing
                  0x013fa8                  _e_activate_agenda
                  0x01400c                  _e_destroy_agenda
                  0x01405e                  _e_set_agenda_cycle
                  0x014094                  _e_reset_agenda
                  0x0140c8                  _e_pause_agenda
                  0x0140fc                  _e_restart_agenda
                  0x014130                  __T2Interrupt
                  0x01419a                  _e_init_remote_control
                  0x0141a8                  __INT0Interrupt
                  0x0141ea                  _e_read_remote_control
                  0x0142f4                  _e_get_check
                  0x014300                  _e_get_address
                  0x01430c                  _e_get_data
                  0x014318                  _e_get_micro
                  0x014332                  _e_get_micro_average
                  0x0143b4                  _e_get_micro_volume
                  0x014432                  _e_get_micro_last_values
                  0x01448c                  _e_calibrate_ir
                  0x014562                  _e_get_prox
                  0x014590                  _e_get_calibrated_prox
                  0x0145d6                  _e_get_ambient_light
                  0x0145f8                  _e_poxxxx_config_cam
                  0x014654                  _e_poxxxx_set_mirror
                  0x014686                  _e_poxxxx_write_cam_registers
                  0x01469a                  _e_poxxxx_init_cam
                  0x014702                  __T5Interrupt
                  0x01474c                  _e_poxxxx_launch_capture
                  0x014764                  _e_poxxxx_apply_timer_config
                  0x0147fc                  _e_poxxxx_is_img_ready
                  0x014804                  _e_i2cp_init
                  0x01480e                  _e_i2cp_enable
                  0x014818                  _e_i2cp_disable
                  0x014822                  _e_i2cp_read
                  0x01487c                  _e_i2cp_write
                  0x0148c4                  _ReadEE
                  0x0148de                  _EraseEE
                  0x014926                  _WriteEE
                  0x014972                  _e_init_codec_slave
                  0x014a1e                  _run_translatorI2C
                  0x014a8c                  _run_translatorI2C_b
                  0x014ab0                  _e_init_port
                  0x014b3a                  __DCIInterrupt
                  0x014bb0                  _e_sub_dci_kickoff
                  0x014c26                  __U1TXInterrupt
                  0x014c6a                  _e_send_uart1_char
                  0x014c82                  _e_uart1_sending
                  0x014c86                  __U2TXInterrupt
                  0x014cca                  _e_send_uart2_char
                  0x014ce2                  _e_uart2_sending
                  0x014ce6                  _wait
                  0x014d08                  _getselector
                  0x014d40                  _e_init_dci_master
                  0x014d7e                  _e_init_sound
                  0x014d9c                  _e_play_sound
                  0x014db2                  _e_close_sound
                  0x014dba                  __U1RXInterrupt
                  0x014dd2                  _e_ischar_uart1
                  0x014dda                  _e_getchar_uart1
                  0x014df6                  __U2RXInterrupt
                  0x014e0e                  _e_ischar_uart2
                  0x014e16                  _e_getchar_uart2
                  0x014e32                  __T4Interrupt
                  0x014e6a                  _e_init_uart1
                  0x014e98                  _e_init_uart2
                  0x014ec4                  _run_grounddirection
                  0xf8000a                  __FGS.sec

External Symbols in Program Memory (by name):

                  0x0148de                  _EraseEE
                  0x0148c4                  _ReadEE
                  0x014926                  _WriteEE
                  0x0116be                  __ADCInterrupt
                  0x014b3a                  __DCIInterrupt
                  0x0001b0                  __DefaultInterrupt
                  0xf8000a                  __FGS.sec
                  0x0141a8                  __INT0Interrupt
                  0x012d82                  __MI2CInterrupt
                  0x014130                  __T2Interrupt
                  0x014e32                  __T4Interrupt
                  0x014702                  __T5Interrupt
                  0x014dba                  __U1RXInterrupt
                  0x014c26                  __U1TXInterrupt
                  0x014df6                  __U2RXInterrupt
                  0x014c86                  __U2TXInterrupt
                  0x001f0e                  ___adddf3
                  0x0001b6                  ___addsf3
                  0x00201c                  ___divdf3
                  0x00252c                  ___divdi3
                  0x000378                  ___divsf3
                  0x0003fc                  ___divsi3
                  0x002008                  ___eqdf2
                  0x00041a                  ___eqsf2
                  0x002164                  ___extendsfdf2
                  0x000422                  ___fixsfsi
                  0x0021a2                  ___fixunsdfdi
                  0x002204                  ___floatdidf
                  0x000464                  ___floatsisf
                  0x002012                  ___gedf2
                  0x00041e                  ___gesf2
                  0x002012                  ___gtdf2
                  0x00041e                  ___gtsf2
                  0x002008                  ___ledf2
                  0x00041a                  ___lesf2
                  0x002008                  ___ltdf2
                  0x00041a                  ___ltsf2
                  0x002598                  ___moddi3
                  0x002278                  ___muldf3
                  0x0023bc                  ___mulp32eds3
                  0x0023bc                  ___mulp32peds3
                  0x000574                  ___mulsf3
                  0x0023bc                  ___mulsi3
                  0x0020d0                  ___nedf2
                  0x0004ca                  ___nesf2
                  0x002362                  ___subdf3
                  0x0001b4                  ___subsf3
                  0x002366                  ___truncdfsf2
                  0x002516                  ___udivdi3
                  0x0023ee                  ___udivmoddi3
                  0x000646                  ___udivsi3
                  0x002524                  ___umoddi3
                  0x000666                  __asinacosf
                  0x001c06                  __bufallo
                  0x001c24                  __buffree
                  0x000824                  __cleanup
                  0x00266c                  __dPropagateNaN
                  0x000132                  __data_init
                  0x000132                  __data_init_standard
                  0x00261a                  __dcompare
                  0x0020da                  __dpack
                  0x002154                  __dreturnNaN
                  0x002688                  __dtype
                  0x0026ac                  __dunpack
                  0x002132                  __dunpack2
                  0x00215a                  __dunpack2exit
                  0x000554                  __fPropagateNaN
                  0x000566                  __fbopExit
                  0x00056e                  __fbopReturnNaN
                  0x000734                  __fchop
                  0x000782                  __fcompare
                  0x001c80                  __filbuf
                  0x0004ce                  __fpack
                  0x002600                  __frexpf
                  0x00051a                  __funpack
                  0x000544                  __funpack2
                  0x000122                  __psv_init
                  0x000100                  __resetPRI
                  0x000b02                  __sprintf_cdfFnopsuxX
                  0x000b02                  __sprintf_cdfFnopuxX
                  0x000b02                  __sprintf_cdnopsuxX
                  0x000b02                  __sprintf_cdnopuxX
                  0x0015da                  __sscanf_0
                  0x00084c                  __sscanf_cdnopuxX
                  0x0015da                  __sscanf_s
                  0x000bde                  __vfprintf_cdfFnopsuxX
                  0x000bde                  __vfprintf_cdfFnopuxX
                  0x000bde                  __vfprintf_cdnopsuxX
                  0x000bde                  __vfprintf_cdnopuxX
                  0x00164e                  __vfscanf_0
                  0x0008c0                  __vfscanf_cdnopuxX
                  0x00164e                  __vfscanf_s
                  0x0126a4                  _acc_calibrate
                  0x013944                  _angle_speed_calc
                  0x000270                  _asinf
                  0x000274                  _atan2f
                  0x0002ae                  _atanf
                  0x0007c6                  _atoi
                  0x0110aa                  _calculate_acc_raw
                  0x0110da                  _calculate_acc_spherical
                  0x00fa16                  _calculate_average
                  0x00fb3e                  _calculate_direction
                  0x00f874                  _check_for_event
                  0x011206                  _e_acc_calibr
                  0x013fa8                  _e_activate_agenda
                  0x011bba                  _e_ad_is_acquisition_completed
                  0x011bc6                  _e_ad_is_array_filled
                  0x011bda                  _e_ad_scan_off
                  0x011bd2                  _e_ad_scan_on
                  0x0103a4                  _e_blink_led
                  0x01047a                  _e_blink_led0
                  0x01049c                  _e_blink_led1
                  0x0104b6                  _e_blink_led2
                  0x0104d8                  _e_blink_led3
                  0x0104fa                  _e_blink_led4
                  0x01051c                  _e_blink_led5
                  0x01053e                  _e_blink_led6
                  0x010560                  _e_blink_led7
                  0x00e134                  _e_bt_connect_epuck
                  0x00e89a                  _e_bt_etablish_SPP_link
                  0x00e324                  _e_bt_exit_tranparent_mode
                  0x00e216                  _e_bt_factory_reset
                  0x00dfb4                  _e_bt_find_epuck
                  0x00edc8                  _e_bt_get_event_filter
                  0x00e7aa                  _e_bt_get_friendly_name
                  0x00e680                  _e_bt_inquiry
                  0x00eb9c                  _e_bt_list_local_paired_device
                  0x00e412                  _e_bt_read_local_name
                  0x00e358                  _e_bt_read_local_pin_number
                  0x00e98a                  _e_bt_release_SPP_link
                  0x00ec4c                  _e_bt_remove_local_paired_device
                  0x00e162                  _e_bt_reset
                  0x00eab2                  _e_bt_send_SPP_data
                  0x00ed2e                  _e_bt_set_event_filter
                  0x00e29a                  _e_bt_tranparent_mode
                  0x00e59e                  _e_bt_write_local_name
                  0x00e4be                  _e_bt_write_local_pin_number
                  0x01448c                  _e_calibrate_ir
                  0x014db2                  _e_close_sound
                  0x01400c                  _e_destroy_agenda
                  0x0112ce                  _e_display_angle
                  0x013fa0                  _e_end_agendas_processing
                  0x010fb4                  _e_get_acc
                  0x011028                  _e_get_acc_filtered
                  0x014300                  _e_get_address
                  0x0145d6                  _e_get_ambient_light
                  0x014590                  _e_get_calibrated_prox
                  0x0142f4                  _e_get_check
                  0x01430c                  _e_get_data
                  0x014318                  _e_get_micro
                  0x014332                  _e_get_micro_average
                  0x014432                  _e_get_micro_last_values
                  0x0143b4                  _e_get_micro_volume
                  0x014562                  _e_get_prox
                  0x0130cc                  _e_get_steps_left
                  0x0130e0                  _e_get_steps_right
                  0x014dda                  _e_getchar_uart1
                  0x014e16                  _e_getchar_uart2
                  0x012bbe                  _e_i2c_ack
                  0x012ae8                  _e_i2c_disable
                  0x012adc                  _e_i2c_enable
                  0x012a5a                  _e_i2c_init
                  0x012c28                  _e_i2c_nack
                  0x012c92                  _e_i2c_read
                  0x012a94                  _e_i2c_reset
                  0x012b3c                  _e_i2c_restart
                  0x012af4                  _e_i2c_start
                  0x012b84                  _e_i2c_stop
                  0x012d42                  _e_i2c_write
                  0x014818                  _e_i2cp_disable
                  0x01480e                  _e_i2cp_enable
                  0x014804                  _e_i2cp_init
                  0x014822                  _e_i2cp_read
                  0x01487c                  _e_i2cp_write
                  0x0115d4                  _e_init_ad_scan
                  0x014972                  _e_init_codec_slave
                  0x014d40                  _e_init_dci_master
                  0x012f6c                  _e_init_motors
                  0x014ab0                  _e_init_port
                  0x01419a                  _e_init_remote_control
                  0x014d7e                  _e_init_sound
                  0x014e6a                  _e_init_uart1
                  0x014e98                  _e_init_uart2
                  0x014dd2                  _e_ischar_uart1
                  0x014e0e                  _e_ischar_uart2
                  0x01030e                  _e_led_clear
                  0x0140c8                  _e_pause_agenda
                  0x014d9c                  _e_play_sound
                  0x00f30a                  _e_po3030k_SetColorMatrix
                  0x013cf2                  _e_po3030k_config_cam
                  0x013f46                  _e_po3030k_get_bytes_per_pixel
                  0x00f11a                  _e_po3030k_get_register
                  0x00ee80                  _e_po3030k_read_cam_registers
                  0x00f1d6                  _e_po3030k_set_adc_offset
                  0x00f3a2                  _e_po3030k_set_ae_speed
                  0x00f520                  _e_po3030k_set_awb_ae
                  0x00f386                  _e_po3030k_set_awb_ae_tol
                  0x00f156                  _e_po3030k_set_bias
                  0x00f34a                  _e_po3030k_set_brigh_contr
                  0x00f336                  _e_po3030k_set_cb_cr_gain
                  0x00f16a                  _e_po3030k_set_color_gain
                  0x00eeb8                  _e_po3030k_set_color_mode
                  0x00f224                  _e_po3030k_set_edge_prop
                  0x00f3c0                  _e_po3030k_set_exposure
                  0x00f584                  _e_po3030k_set_flicker_detection
                  0x00f68e                  _e_po3030k_set_flicker_man_set
                  0x00f55e                  _e_po3030k_set_flicker_mode
                  0x00f240                  _e_po3030k_set_gamma_coef
                  0x00f1a8                  _e_po3030k_set_integr_time
                  0x00f208                  _e_po3030k_set_lens_gain
                  0x00f426                  _e_po3030k_set_max_min_awb
                  0x00f3f8                  _e_po3030k_set_max_min_exp
                  0x00f0a2                  _e_po3030k_set_mirror
                  0x00f3ec                  _e_po3030k_set_ref_exposure
                  0x00f0e0                  _e_po3030k_set_register
                  0x00eefc                  _e_po3030k_set_sampling_mode
                  0x00f1e2                  _e_po3030k_set_sepia
                  0x00f35e                  _e_po3030k_set_sepia_tone
                  0x00ef2a                  _e_po3030k_set_speed
                  0x00f026                  _e_po3030k_set_vsync
                  0x00f45a                  _e_po3030k_set_weight_win
                  0x00f372                  _e_po3030k_set_ww
                  0x00ef74                  _e_po3030k_set_wx
                  0x00efd0                  _e_po3030k_set_wy
                  0x00f2ac                  _e_po3030k_sync_register_array
                  0x00ee4c                  _e_po3030k_write_cam_registers
                  0x00f282                  _e_po3030k_write_gamma_coef
                  0x013a32                  _e_po6030k_config_cam
                  0x013cba                  _e_po6030k_get_bytes_per_pixel
                  0x013130                  _e_po6030k_read_register
                  0x0130f4                  _e_po6030k_set_bank
                  0x013152                  _e_po6030k_set_bayer_clkdiv
                  0x01340e                  _e_po6030k_set_mirror
                  0x013296                  _e_po6030k_set_mode
                  0x013162                  _e_po6030k_set_pclkdiv
                  0x0133b0                  _e_po6030k_set_sketch_mode
                  0x013350                  _e_po6030k_set_vsync
                  0x0132ee                  _e_po6030k_set_wx
                  0x013344                  _e_po6030k_set_wy
                  0x01310e                  _e_po6030k_write_register
                  0x014764                  _e_poxxxx_apply_timer_config
                  0x0145f8                  _e_poxxxx_config_cam
                  0x01469a                  _e_poxxxx_init_cam
                  0x0147fc                  _e_poxxxx_is_img_ready
                  0x01474c                  _e_poxxxx_launch_capture
                  0x014654                  _e_poxxxx_set_mirror
                  0x014686                  _e_poxxxx_write_cam_registers
                  0x011280                  _e_read_acc
                  0x01122a                  _e_read_acc_spheric
                  0x0112b0                  _e_read_acc_x
                  0x01128c                  _e_read_acc_xyz
                  0x0112ba                  _e_read_acc_y
                  0x0112c4                  _e_read_acc_z
                  0x011268                  _e_read_inclination
                  0x011274                  _e_read_orientation
                  0x0141ea                  _e_read_remote_control
                  0x014094                  _e_reset_agenda
                  0x0140fc                  _e_restart_agenda
                  0x014c6a                  _e_send_uart1_char
                  0x014cca                  _e_send_uart2_char
                  0x01405e                  _e_set_agenda_cycle
                  0x010596                  _e_set_blinking_cycle
                  0x010324                  _e_set_body_led
                  0x010364                  _e_set_front_led
                  0x01006c                  _e_set_led
                  0x01308a                  _e_set_speed
                  0x012f82                  _e_set_speed_left
                  0x013006                  _e_set_speed_right
                  0x0130d4                  _e_set_steps_left
                  0x0130e8                  _e_set_steps_right
                  0x013f7e                  _e_start_agendas_processing
                  0x01057a                  _e_start_led_blinking
                  0x01058a                  _e_stop_led_blinking
                  0x014bb0                  _e_sub_dci_kickoff
                  0x014c82                  _e_uart1_sending
                  0x014ce2                  _e_uart2_sending
                  0x00080e                  _exit
                  0x001a58                  _fclose
                  0x001c2c                  _fflush
                  0x001ac8                  _fgetc
                  0x00f96e                  _filter_signal
                  0x00fce2                  _find_delta_t
                  0x0004ba                  _floorf
                  0x01061a                  _flow_led
                  0x013568                  _followGetSensorValues
                  0x013980                  _follow_neuron
                  0x013448                  _follow_sensor_calibrate
                  0x013530                  _followgetSelectorValue
                  0x0135a2                  _followsetSpeed
                  0x0019b4                  _free
                  0x002272                  _frexpf
                  0x014d08                  _getselector
                  0x012a2a                  _idle_i2c
                  0x00f772                  _init_sound
                  0x001a1a                  _isalpha
                  0x001a2e                  _isspace
                  0x001a3e                  _isupper
                  0x0106a2                  _k2000_led
                  0x0107b2                  _left_led
                  0x013886                  _lin_speed_calc
                  0x010822                  _main
                  0x001890                  _malloc
                  0x001da2                  _memcpy
                  0x000816                  _memset
                  0x0019c0                  _realloc
                  0x00f862                  _record_sound
                  0x010742                  _right_led
                  0x011be2                  _run_CameraTurn
                  0x011fa2                  _run_DustCleaner
                  0x011dc6                  _run_SensDispl
                  0x012768                  _run_accelerometer
                  0x00c67c                  _run_asercom
                  0x0139de                  _run_breitenberg_follower
                  0x013a08                  _run_breitenberg_shocker
                  0x014ec4                  _run_grounddirection
                  0x012d9c                  _run_left_motor
                  0x00ff14                  _run_locatesound
                  0x012e84                  _run_right_motor
                  0x014a1e                  _run_translatorI2C
                  0x014a8c                  _run_translatorI2C_b
                  0x0135e4                  _run_wallfollow
                  0x013766                  _shock_neuron
                  0x00fd98                  _show_led
                  0x0105aa                  _snake_led
                  0x0005dc                  _sqrtf
                  0x000840                  _strlen
                  0x001a4a                  _tolower
                  0x0007b8                  _toupper
                  0x00fe7a                  _turn_to_direction
                  0x001bc4                  _ungetc
                  0x014ce6                  _wait
                  0x0031b4                  e_sound_sample

Memory Configuration

Name             Origin             Length             Attributes
data             0x000800           0x002000           a !xr
reset            0x000000           0x000004  
ivt              0x000004           0x00007c  
aivt             0x000084           0x00007c  
program          0x000100           0x017efe           xr
eedata           0x7ff000           0x001000  
FUID0            0x8005c0           0x000002  
FUID1            0x8005c2           0x000002  
FUID2            0x8005c4           0x000002  
FUID3            0x8005c6           0x000002  
FOSC             0xf80000           0x000002  
FWDT             0xf80002           0x000002  
FBORPOR          0xf80004           0x000002  
FBS              0xf80006           0x000002  
FSS              0xf80008           0x000002  
FGS              0xf8000a           0x000002  
ICD              0xf8000c           0x000002  
*default*        0x000000           0xffffffff  

Linker script and memory map

LOAD build/default/production/_ext/1472/utility.o
LOAD build/default/production/_ext/1472/Asercom.o
LOAD build/default/production/_ext/1472/DataEEPROM.o
LOAD build/default/production/_ext/1472/main_c.o
LOAD build/default/production/_ext/1472/runaccelerometer.o
LOAD build/default/production/_ext/1472/runbreitenberg_adv.o
LOAD build/default/production/_ext/1472/rungrounddirection.o
LOAD build/default/production/_ext/1472/runlocatesound.o
LOAD build/default/production/_ext/1472/runshow.o
LOAD build/default/production/_ext/1472/runwallfollow.o
LOAD build/default/production/_ext/1472/translatorI2C.o
LOAD build/default/production/_ext/487958404/e_acc.o
LOAD build/default/production/_ext/487958404/e_ad_conv.o
LOAD build/default/production/_ext/663421589/e_bluetooth.o
LOAD build/default/production/_ext/930121020/e_common.o
LOAD build/default/production/_ext/930121020/e_interrupt.o
LOAD build/default/production/_ext/930121020/e_po6030k_registers.o
LOAD build/default/production/_ext/2015481517/e_const_sound.o
LOAD build/default/production/_ext/2015481517/e_init_codec_slave.o
LOAD build/default/production/_ext/2015481517/e_init_dci_master.o
LOAD build/default/production/_ext/2015481517/e_isr_dci.o
LOAD build/default/production/_ext/2015481517/e_sound.o
LOAD build/default/production/_ext/2015481517/e_sub_dci_kickoff.o
LOAD build/default/production/_ext/417766185/e_I2C_master_module.o
LOAD build/default/production/_ext/417766185/e_I2C_protocol.o
LOAD build/default/production/_ext/64492303/e_init_uart1.o
LOAD build/default/production/_ext/64492303/e_uart1_rx_char.o
LOAD build/default/production/_ext/64492303/e_uart1_tx_char.o
LOAD build/default/production/_ext/64492303/e_uart2_rx_char.o
LOAD build/default/production/_ext/64492303/e_uart2_tx_char.o
LOAD build/default/production/_ext/1259340286/e_init_port.o
LOAD build/default/production/_ext/1949949662/e_agenda.o
LOAD build/default/production/_ext/1949949662/e_remote_control.o
LOAD build/default/production/_ext/1514613776/e_calc_po3030k.o
LOAD build/default/production/_ext/1514613776/e_calc_po6030k.o
LOAD build/default/production/_ext/760574787/e_init_uart2.o
LOAD build/default/production/_ext/879901074/e_led.o
LOAD build/default/production/_ext/487958404/e_micro.o
LOAD build/default/production/_ext/879901074/e_motors.o
LOAD build/default/production/_ext/1514613776/e_po3030k_registers.o
LOAD build/default/production/_ext/487958404/e_prox.o
LOAD build/default/production/_ext/1514613776/e_timers.o
                    0x0001                  __MPLAB_BUILD = 0x1
LOAD c:/program files (x86)/microchip/mplab c30/bin/bin/../../lib/dsPIC30F\libp30F6014A-elf.a
                    0x8005c0                  __FUID0 = 0x8005c0
                    0x8005c2                  __FUID1 = 0x8005c2
                    0x8005c4                  __FUID2 = 0x8005c4
                    0x8005c6                  __FUID3 = 0x8005c6
                    0xf80000                  __FOSC = 0xf80000
                    0xf80002                  __FWDT = 0xf80002
                    0xf80004                  __FBORPOR = 0xf80004
                    0xf80006                  __FBS = 0xf80006
                    0xf80008                  __FSS = 0xf80008
                    0xf8000a                  __FGS = 0xf8000a
                    0xf8000c                  __ICD = 0xf8000c
                    0x0004                  __IVT_BASE = 0x4
                    0x0084                  __AIVT_BASE = 0x84
                    0x0800                  __DATA_BASE = 0x800
                    0x2000                  __DATA_LENGTH = 0x2000
                    0x1800                  __YDATA_BASE = 0x1800
                    0x0100                  __CODE_BASE = 0x100
                    0x17f00                  __CODE_LENGTH = 0x17f00

.reset            0x000000          0x4
                  0x000000          0x2 SHORT 0x100 ABSOLUTE (__reset)
                  0x000001          0x2 SHORT 0x4
                  0x000002          0x2 SHORT 0x0 ((ABSOLUTE (__reset) >> 0x10) & 0x7f)
                  0x000003          0x2 SHORT 0x0

.text             0x000100       0x25fa
 *(.init)
 .init            0x000100         0x32 c:/program files (x86)/microchip/mplab c30/bin/bin/../../lib\libpic30-elf.a(crt0_standard.o)
                  0x000100                  __resetPRI
                  0x000100                  __reset
                  0x000122                  __psv_init
 .init            0x000132         0x5e c:/program files (x86)/microchip/mplab c30/bin/bin/../../lib\libpic30-elf.a(data_init_standard.o)
                  0x000132                  __data_init_standard
                  0x000132                  __data_init
 *(.user_init)
 *(.handle)
 .handle          0x000190         0x20 jump_table
 *(.isr*)
 .isr             0x0001b0          0x4 default_isr
                  0x0001b0                  __DefaultInterrupt
 *(.libc)
 *(.libm)
 *(.libdsp)
 *(.lib*)
 .libm.subsf3     0x0001b4         0xbc c:/program files (x86)/microchip/mplab c30/bin/bin/../../lib\libm-elf.a(addsf3.eo)
                  0x0001b4                  ___subsf3
                  0x0001b6                  ___addsf3
 .libm.asinf      0x000270          0x4 c:/program files (x86)/microchip/mplab c30/bin/bin/../../lib\libm-elf.a(asinf.eo)
                  0x000270                  _asinf
 .libm.atanf      0x000274         0x3a c:/program files (x86)/microchip/mplab c30/bin/bin/../../lib\libm-elf.a(atan2f.eo)
                  0x000274                  _atan2f
 .libm.atanf      0x0002ae         0xca c:/program files (x86)/microchip/mplab c30/bin/bin/../../lib\libm-elf.a(atanf.eo)
                  0x0002ae                  _atanf
 .libm.divfs3     0x000378         0x84 c:/program files (x86)/microchip/mplab c30/bin/bin/../../lib\libm-elf.a(divsf3.eo)
                  0x000378                  ___divsf3
 .libm.divsi3     0x0003fc         0x1e c:/program files (x86)/microchip/mplab c30/bin/bin/../../lib\libm-elf.a(divsi3.eo)
                  0x0003fc                  ___divsi3
 .libm.eqsf2      0x00041a          0x4 c:/program files (x86)/microchip/mplab c30/bin/bin/../../lib\libm-elf.a(feqltle.eo)
                  0x00041a                  ___eqsf2
                  0x00041a                  ___ltsf2
                  0x00041a                  ___lesf2
 .libm.gtsf2      0x00041e          0x4 c:/program files (x86)/microchip/mplab c30/bin/bin/../../lib\libm-elf.a(fgtge.eo)
                  0x00041e                  ___gesf2
                  0x00041e                  ___gtsf2
 .libm.fixsfsi    0x000422         0x42 c:/program files (x86)/microchip/mplab c30/bin/bin/../../lib\libm-elf.a(fixsfsi.eo)
                  0x000422                  _(float, int, long long, short, float, short, int)
 .libm.floatsisf
                  0x000464         0x56 c:/program files (x86)/microchip/mplab c30/bin/bin/../../lib\libm-elf.a(floatsisf.eo)
                  0x000464                  ___floatsisf
 .libm.floorf     0x0004ba         0x10 c:/program files (x86)/microchip/mplab c30/bin/bin/../../lib\libm-elf.a(floorf.eo)
                  0x0004ba                  _floorf
 .libm.nesf2      0x0004ca          0x4 c:/program files (x86)/microchip/mplab c30/bin/bin/../../lib\libm-elf.a(fne.eo)
                  0x0004ca                  ___nesf2
 .libm.fpack      0x0004ce         0x4c c:/program files (x86)/microchip/mplab c30/bin/bin/../../lib\libm-elf.a(fpack.eo)
                  0x0004ce                  __fpack
 .libm.funpack    0x00051a         0x2a c:/program files (x86)/microchip/mplab c30/bin/bin/../../lib\libm-elf.a(funpack.eo)
                  0x00051a                  __funpack
 .libm.funpack2
                  0x000544         0x10 c:/program files (x86)/microchip/mplab c30/bin/bin/../../lib\libm-elf.a(funpack2.eo)
                  0x000544                  __funpack2
 .libm.fPropagateNaN
                  0x000554         0x12 c:/program files (x86)/microchip/mplab c30/bin/bin/../../lib\libm-elf.a(futil.eo)
                  0x000554                  __fPropagateNaN
 .libm.fbobExit
                  0x000566          0x8 c:/program files (x86)/microchip/mplab c30/bin/bin/../../lib\libm-elf.a(futil.eo)
                  0x000566                  __fbopExit
 .libm.fbopReturnNaN
                  0x00056e          0x6 c:/program files (x86)/microchip/mplab c30/bin/bin/../../lib\libm-elf.a(futil.eo)
                  0x00056e                  __fbopReturnNaN
 .libm.mulsf3     0x000574         0x68 c:/program files (x86)/microchip/mplab c30/bin/bin/../../lib\libm-elf.a(mulsf3.eo)
                  0x000574                  ___mulsf3
 .libm.sqrtf      0x0005dc         0x6a c:/program files (x86)/microchip/mplab c30/bin/bin/../../lib\libm-elf.a(sqrtf.eo)
                  0x0005dc                  _sqrtf
 .libm.udivsi3    0x000646         0x20 c:/program files (x86)/microchip/mplab c30/bin/bin/../../lib\libm-elf.a(udivsi3.eo)
                  0x000646                  ___udivsi3
 .libm.asinacosf
                  0x000666         0xce c:/program files (x86)/microchip/mplab c30/bin/bin/../../lib\libm-elf.a(asinacosf.eo)
                  0x000666                  __asinacosf
 .libm.fchop      0x000734         0x4e c:/program files (x86)/microchip/mplab c30/bin/bin/../../lib\libm-elf.a(fchop.eo)
                  0x000734                  __fchop
 .libm.fcompare
                  0x000782         0x36 c:/program files (x86)/microchip/mplab c30/bin/bin/../../lib\libm-elf.a(fcompare.eo)
                  0x000782                  __fcompare
 .libc.toupper    0x0007b8          0xe c:/program files (x86)/microchip/mplab c30/bin/bin/../../lib\libc-elf.a(toupper.XXeo)
                  0x0007b8                  _toupper
 .libc.atoi       0x0007c6         0x48 c:/program files (x86)/microchip/mplab c30/bin/bin/../../lib\libc-elf.a(atoi.XXeo)
                  0x0007c6                  _atoi
 .libc.exit       0x00080e          0x8 c:/program files (x86)/microchip/mplab c30/bin/bin/../../lib\libc-elf.a(exit.XXeo)
                  0x00080e                  _exit
 .libc.memset     0x000816          0xe c:/program files (x86)/microchip/mplab c30/bin/bin/../../lib\libc-elf.a(memset.XXeo)
                  0x000816                  _memset
 .libc._cleanup
                  0x000824         0x1c c:/program files (x86)/microchip/mplab c30/bin/bin/../../lib\libc-elf.a(stdclean.XXeo)
                  0x000824                  __cleanup
 .libc.strlen     0x000840          0xc c:/program files (x86)/microchip/mplab c30/bin/bin/../../lib\libc-elf.a(strlen.XXeo)
                  0x000840                  _strlen
 .libc._sscanf_cdnopuxX
                  0x00084c         0x1c c:/program files (x86)/microchip/mplab c30/bin/bin/../../lib\libc-elf.a(sscanf_cdnopuxX.XXeo)
                  0x00084c                  __sscanf_cdnopuxX
 .libc.range      0x000868         0x3c c:/program files (x86)/microchip/mplab c30/bin/bin/../../lib\libc-elf.a(doscan_cdnopuxX.XXeo)
 .libc.wspace     0x0008a4         0x1c c:/program files (x86)/microchip/mplab c30/bin/bin/../../lib\libc-elf.a(doscan_cdnopuxX.XXeo)
 .libc._vfscanf_cdnopuxX
                  0x0008c0        0x242 c:/program files (x86)/microchip/mplab c30/bin/bin/../../lib\libc-elf.a(doscan_cdnopuxX.XXeo)
                  0x0008c0                  __vfscanf_cdnopuxX
 .libc._sprintf_cdfFnopsuxX
                  0x000b02         0x2e c:/program files (x86)/microchip/mplab c30/bin/bin/../../lib\libc-elf.a(sprintf_cdfFnopsuxX.XXeo)
                  0x000b02                  __sprintf_cdfFnopuxX
                  0x000b02                  __sprintf_cdfFnopsuxX
                  0x000b02                  __sprintf_cdnopuxX
                  0x000b02                  __sprintf_cdnopsuxX
 .libc.scale      0x000b30         0xae c:/program files (x86)/microchip/mplab c30/bin/bin/../../lib\libc-elf.a(doprnt_cdfFnopsuxX.XXeo)
 .libc._vfprintf_cdfFnopsuxX
                  0x000bde        0x9fc c:/program files (x86)/microchip/mplab c30/bin/bin/../../lib\libc-elf.a(doprnt_cdfFnopsuxX.XXeo)
                  0x000bde                  __vfprintf_cdnopuxX
                  0x000bde                  __vfprintf_cdnopsuxX
                  0x000bde                  __vfprintf_cdfFnopuxX
                  0x000bde                  __vfprintf_cdfFnopsuxX
 .libc._sscanf_s
                  0x0015da         0x1c c:/program files (x86)/microchip/mplab c30/bin/bin/../../lib\libc-elf.a(sscanf_s.XXeo)
                  0x0015da                  __sscanf_0
                  0x0015da                  __sscanf_s
 .libc.range      0x0015f6         0x3c c:/program files (x86)/microchip/mplab c30/bin/bin/../../lib\libc-elf.a(doscan_s.XXeo)
 .libc.wspace     0x001632         0x1c c:/program files (x86)/microchip/mplab c30/bin/bin/../../lib\libc-elf.a(doscan_s.XXeo)
 .libc._vfscanf_s
                  0x00164e        0x242 c:/program files (x86)/microchip/mplab c30/bin/bin/../../lib\libc-elf.a(doscan_s.XXeo)
                  0x00164e                  __vfscanf_s
                  0x00164e                  __vfscanf_0
 .libc.malloc     0x001890        0x124 c:/program files (x86)/microchip/mplab c30/bin/bin/../../lib\libc-elf.a(malloc.XXeo)
                  0x001890                  _malloc
 .libc.free       0x0019b4          0xc c:/program files (x86)/microchip/mplab c30/bin/bin/../../lib\libc-elf.a(malloc.XXeo)
                  0x0019b4                  _free
 .libc.realloc    0x0019c0         0x5a c:/program files (x86)/microchip/mplab c30/bin/bin/../../lib\libc-elf.a(malloc.XXeo)
                  0x0019c0                  _realloc
 .libc.isalpha    0x001a1a         0x14 c:/program files (x86)/microchip/mplab c30/bin/bin/../../lib\libc-elf.a(isalpha.XXelo)
                  0x001a1a                  _isalpha
 .libc.isspace    0x001a2e         0x10 c:/program files (x86)/microchip/mplab c30/bin/bin/../../lib\libc-elf.a(isspace.XXelo)
                  0x001a2e                  _isspace
 .libc.isupper    0x001a3e          0xc c:/program files (x86)/microchip/mplab c30/bin/bin/../../lib\libc-elf.a(isupper.XXelo)
                  0x001a3e                  _isupper
 .libc.tolower    0x001a4a          0xe c:/program files (x86)/microchip/mplab c30/bin/bin/../../lib\libc-elf.a(tolower.XXelo)
                  0x001a4a                  _tolower
 .libc.fclose     0x001a58         0x70 c:/program files (x86)/microchip/mplab c30/bin/bin/../../lib\libc-elf.a(fclose.XXelo)
                  0x001a58                  _fclose
 .libc.fgetc      0x001ac8         0x68 c:/program files (x86)/microchip/mplab c30/bin/bin/../../lib\libc-elf.a(fgetc.XXelo)
                  0x001ac8                  _fgetc
 .libc.fputc      0x001b30         0x94 c:/program files (x86)/microchip/mplab c30/bin/bin/../../lib\libc-elf.a(fputc.XXelo)
                  0x001b30                  _fputc
 .libc.ungetc     0x001bc4         0x42 c:/program files (x86)/microchip/mplab c30/bin/bin/../../lib\libc-elf.a(ungetc.XXelo)
                  0x001bc4                  _ungetc
 .libc._bufallo
                  0x001c06         0x1e c:/program files (x86)/microchip/mplab c30/bin/bin/../../lib\libc-elf.a(buf.XXeo)
                  0x001c06                  __bufallo
 .libc._buffree
                  0x001c24          0x8 c:/program files (x86)/microchip/mplab c30/bin/bin/../../lib\libc-elf.a(buf.XXeo)
                  0x001c24                  __buffree
 .libc.fflush     0x001c2c         0x54 c:/program files (x86)/microchip/mplab c30/bin/bin/../../lib\libc-elf.a(fflush.XXeo)
                  0x001c2c                  _fflush
 .libc._filbuf    0x001c80         0x9c c:/program files (x86)/microchip/mplab c30/bin/bin/../../lib\libc-elf.a(filbuf.XXeo)
                  0x001c80                  __filbuf
 .libc._flsbuf    0x001d1c         0x86 c:/program files (x86)/microchip/mplab c30/bin/bin/../../lib\libc-elf.a(flsbuf.XXeo)
                  0x001d1c                  __flsbuf
 .libc.memcpy     0x001da2          0xe c:/program files (x86)/microchip/mplab c30/bin/bin/../../lib\libc-elf.a(memcpy.XXeo)
                  0x001da2                  _memcpy
 .libc._exit      0x001db0         0x10 c:/program files (x86)/microchip/mplab c30/bin/bin/../../lib\libpic30-elf.a(_exit.eo)
                  0x001db0                  __exit
 .libc.read       0x001dc0         0x72 c:/program files (x86)/microchip/mplab c30/bin/bin/../../lib\libpic30-elf.a(read.eo)
                  0x001dc0                  _read
 .libc.close      0x001e32         0x12 c:/program files (x86)/microchip/mplab c30/bin/bin/../../lib\libpic30-elf.a(close.eo)
                  0x001e32                  _close
 .libc.write      0x001e44         0x6e c:/program files (x86)/microchip/mplab c30/bin/bin/../../lib\libpic30-elf.a(write.eo)
                  0x001e44                  _write
 .libc.remove     0x001eb2         0x12 c:/program files (x86)/microchip/mplab c30/bin/bin/../../lib\libpic30-elf.a(remove.eo)
                  0x001eb2                  _remove
 .libc.sbrk       0x001ec4         0x2c c:/program files (x86)/microchip/mplab c30/bin/bin/../../lib\libpic30-elf.a(sbrk.eo)
                  0x001ec4                  _sbrk
 .libc.brk        0x001ef0         0x1e c:/program files (x86)/microchip/mplab c30/bin/bin/../../lib\libpic30-elf.a(brk.elo)
                  0x001ef0                  _brk
 .libm.adddf3     0x001f0e         0xfa c:/program files (x86)/microchip/mplab c30/bin/bin/../../lib\libm-elf.a(adddf3.eo)
                  0x001f0e                  ___adddf3
 .libm.eqdf2      0x002008          0xa c:/program files (x86)/microchip/mplab c30/bin/bin/../../lib\libm-elf.a(deqltle.eo)
                  0x002008                  ___eqdf2
                  0x002008                  ___ltdf2
                  0x002008                  ___ledf2
 .libm.gtdf2      0x002012          0xa c:/program files (x86)/microchip/mplab c30/bin/bin/../../lib\libm-elf.a(dgtge.eo)
                  0x002012                  ___gtdf2
                  0x002012                  ___gedf2
 .libm.divdf3     0x00201c         0xb4 c:/program files (x86)/microchip/mplab c30/bin/bin/../../lib\libm-elf.a(divdf3.eo)
                  0x00201c                  ___divdf3
 .libm.nedf2      0x0020d0          0xa c:/program files (x86)/microchip/mplab c30/bin/bin/../../lib\libm-elf.a(dne.eo)
                  0x0020d0                  ___nedf2
 .libm.dpack      0x0020da         0x58 c:/program files (x86)/microchip/mplab c30/bin/bin/../../lib\libm-elf.a(dpack.eo)
                  0x0020da                  __dpack
 .libm.dunpack2
                  0x002132         0x32 c:/program files (x86)/microchip/mplab c30/bin/bin/../../lib\libm-elf.a(dunpack2.eo)
                  0x002132                  __dunpack2
                  0x002154                  __dreturnNaN
                  0x00215a                  __dunpack2exit
 .libm.extendsfdf2
                  0x002164         0x3e c:/program files (x86)/microchip/mplab c30/bin/bin/../../lib\libm-elf.a(extendsfdf.eo)
                  0x002164                  ___extendsfdf2
 .libm.fixunsdfdi
                  0x0021a2         0x62 c:/program files (x86)/microchip/mplab c30/bin/bin/../../lib\libm-elf.a(fixunsdfdi.eo)
                  0x0021a2                  ___fixunsdfdi
 .libm.floatdidf
                  0x002204         0x6e c:/program files (x86)/microchip/mplab c30/bin/bin/../../lib\libm-elf.a(floatdidf.eo)
                  0x002204                  ___floatdidf
 .libm.frexpf     0x002272          0x6 c:/program files (x86)/microchip/mplab c30/bin/bin/../../lib\libm-elf.a(frexpf.eo)
                  0x002272                  _frexpf
 .libm.muldf3     0x002278         0xea c:/program files (x86)/microchip/mplab c30/bin/bin/../../lib\libm-elf.a(muldf3.eo)
                  0x002278                  ___muldf3
 .libm.subdf3     0x002362          0x4 c:/program files (x86)/microchip/mplab c30/bin/bin/../../lib\libm-elf.a(subdf3.eo)
                  0x002362                  ___subdf3
 .libm.truncdfsf2
                  0x002366         0x56 c:/program files (x86)/microchip/mplab c30/bin/bin/../../lib\libm-elf.a(truncdfsf.eo)
                  0x002366                  ___truncdfsf2
 .libc.mulsi3     0x0023bc          0xc c:/program files (x86)/microchip/mplab c30/bin/bin/../../lib\libm-elf.a(mulsi3.eo)
                  0x0023bc                  ___mulp32peds3
                  0x0023bc                  ___mulsi3
                  0x0023bc                  ___mulp32eds3
 .libm.__PplusBdi
                  0x0023c8         0x26 c:/program files (x86)/microchip/mplab c30/bin/bin/../../lib\libm-elf.a(divmoddi3.eo)
 .libm.__udivmoddi3
                  0x0023ee        0x128 c:/program files (x86)/microchip/mplab c30/bin/bin/../../lib\libm-elf.a(divmoddi3.eo)
                  0x0023ee                  ___udivmoddi3
 .libm.__udivdi3
                  0x002516          0xe c:/program files (x86)/microchip/mplab c30/bin/bin/../../lib\libm-elf.a(divmoddi3.eo)
                  0x002516                  ___udivdi3
 .libm.__umoddi3
                  0x002524          0x8 c:/program files (x86)/microchip/mplab c30/bin/bin/../../lib\libm-elf.a(divmoddi3.eo)
                  0x002524                  ___umoddi3
 .libm.__divdi3
                  0x00252c         0x6c c:/program files (x86)/microchip/mplab c30/bin/bin/../../lib\libm-elf.a(divmoddi3.eo)
                  0x00252c                  ___divdi3
 .libm.__moddi3
                  0x002598         0x68 c:/program files (x86)/microchip/mplab c30/bin/bin/../../lib\libm-elf.a(divmoddi3.eo)
                  0x002598                  ___moddi3
 .libm.frexpf     0x002600         0x1a c:/program files (x86)/microchip/mplab c30/bin/bin/../../lib\libm-elf.a(_frexpf.eo)
                  0x002600                  __frexpf
 .libm.dcompare
                  0x00261a         0x52 c:/program files (x86)/microchip/mplab c30/bin/bin/../../lib\libm-elf.a(dcompare.eo)
                  0x00261a                  __dcompare
 .libm.dPropagateNaN
                  0x00266c         0x1c c:/program files (x86)/microchip/mplab c30/bin/bin/../../lib\libm-elf.a(dpropagateNaN.eo)
                  0x00266c                  __dPropagateNaN
 .libm.dtype      0x002688         0x24 c:/program files (x86)/microchip/mplab c30/bin/bin/../../lib\libm-elf.a(dtype.eo)
                  0x002688                  __dtype
 .libm.dunpack    0x0026ac         0x4e c:/program files (x86)/microchip/mplab c30/bin/bin/../../lib\libm-elf.a(dunpack.eo)
                  0x0026ac                  __dunpack

usercode
 *(usercode)

__FUID0
 *(__FUID0.sec)

__FUID1
 *(__FUID1.sec)

__FUID2
 *(__FUID2.sec)

__FUID3
 *(__FUID3.sec)

__FOSC            0xf80000          0x2
 *(__FOSC.sec)
 __FOSC.sec       0xf80000          0x2 build/default/production/_ext/1259340286/e_init_port.o

__FWDT            0xf80002          0x2
 *(__FWDT.sec)
 __FWDT.sec       0xf80002          0x2 build/default/production/_ext/1259340286/e_init_port.o

__FBORPOR         0xf80004          0x2
 *(__FBORPOR.sec)
 __FBORPOR.sec    0xf80004          0x2 build/default/production/_ext/1259340286/e_init_port.o

__FBS
 *(__FBS.sec)

__FSS
 *(__FSS.sec)

__FGS             0xf8000a          0x2
 *(__FGS.sec)
 __FGS.sec        0xf8000a          0x2 FGS
                  0xf8000a                  __FGS.sec

__ICD
 *(__ICD.sec)

user_eedata
 *(user_eedata)

userdata
 *(userdata)

.comment
 *(.comment)

.debug_info       0x000000       0xde54
 *(.debug_info)
 .debug_info      0x000000        0x26f build/default/production/_ext/1472/utility.o
 .debug_info      0x00026f        0x8af build/default/production/_ext/1472/Asercom.o
 .debug_info      0x000b1e         0xc1 build/default/production/_ext/1472/DataEEPROM.o
 .debug_info      0x000bdf        0x6df build/default/production/_ext/1472/main_c.o
 .debug_info      0x0012be        0x314 build/default/production/_ext/1472/runaccelerometer.o
 .debug_info      0x0015d2        0x3bd build/default/production/_ext/1472/runbreitenberg_adv.o
 .debug_info      0x00198f        0x12b build/default/production/_ext/1472/rungrounddirection.o
 .debug_info      0x001aba        0x766 build/default/production/_ext/1472/runlocatesound.o
 .debug_info      0x002220        0x3b0 build/default/production/_ext/1472/runshow.o
 .debug_info      0x0025d0        0x49f build/default/production/_ext/1472/runwallfollow.o
 .debug_info      0x002a6f        0x1c1 build/default/production/_ext/1472/translatorI2C.o
 .debug_info      0x002c30        0x64e build/default/production/_ext/487958404/e_acc.o
 .debug_info      0x00327e       0x116e build/default/production/_ext/487958404/e_ad_conv.o
 .debug_info      0x0043ec        0xf42 build/default/production/_ext/663421589/e_bluetooth.o
 .debug_info      0x00532e        0x493 build/default/production/_ext/930121020/e_common.o
 .debug_info      0x0057c1         0xe4 build/default/production/_ext/930121020/e_interrupt.o
 .debug_info      0x0058a5        0x574 build/default/production/_ext/930121020/e_po6030k_registers.o
 .debug_info      0x005e19         0xdd build/default/production/_ext/2015481517/e_init_codec_slave.o
 .debug_info      0x005ef6         0xdc build/default/production/_ext/2015481517/e_init_dci_master.o
 .debug_info      0x005fd2         0xd4 build/default/production/_ext/2015481517/e_isr_dci.o
 .debug_info      0x0060a6        0x291 build/default/production/_ext/2015481517/e_sound.o
 .debug_info      0x006337         0xdc build/default/production/_ext/2015481517/e_sub_dci_kickoff.o
 .debug_info      0x006413        0xbaf build/default/production/_ext/417766185/e_I2C_master_module.o
 .debug_info      0x006fc2        0x221 build/default/production/_ext/417766185/e_I2C_protocol.o
 .debug_info      0x0071e3         0xd6 build/default/production/_ext/64492303/e_init_uart1.o
 .debug_info      0x0072b9         0xd9 build/default/production/_ext/64492303/e_uart1_rx_char.o
 .debug_info      0x007392         0xd9 build/default/production/_ext/64492303/e_uart1_tx_char.o
 .debug_info      0x00746b         0xd9 build/default/production/_ext/64492303/e_uart2_rx_char.o
 .debug_info      0x007544         0xd9 build/default/production/_ext/64492303/e_uart2_tx_char.o
 .debug_info      0x00761d        0xc7a build/default/production/_ext/1259340286/e_init_port.o
 .debug_info      0x008297        0x87f build/default/production/_ext/1949949662/e_agenda.o
 .debug_info      0x008b16        0x861 build/default/production/_ext/1949949662/e_remote_control.o
 .debug_info      0x009377        0x29e build/default/production/_ext/1514613776/e_calc_po3030k.o
 .debug_info      0x009615        0x2b4 build/default/production/_ext/1514613776/e_calc_po6030k.o
 .debug_info      0x0098c9         0xc8 build/default/production/_ext/760574787/e_init_uart2.o
 .debug_info      0x009991        0x62c build/default/production/_ext/879901074/e_led.o
 .debug_info      0x009fbd        0x2dd build/default/production/_ext/487958404/e_micro.o
 .debug_info      0x00a29a        0x571 build/default/production/_ext/879901074/e_motors.o
 .debug_info      0x00a80b        0xe48 build/default/production/_ext/1514613776/e_po3030k_registers.o
 .debug_info      0x00b653        0x292 build/default/production/_ext/487958404/e_prox.o
 .debug_info      0x00b8e5        0x89e build/default/production/_ext/1514613776/e_timers.o
 .debug_info      0x00c183        0x10e c:/program files (x86)/microchip/mplab c30/bin/bin/../../lib\libpic30-elf.a(_exit.eo)
 .debug_info      0x00c291        0x7e3 c:/program files (x86)/microchip/mplab c30/bin/bin/../../lib\libpic30-elf.a(read.eo)
 .debug_info      0x00ca74        0x4b7 c:/program files (x86)/microchip/mplab c30/bin/bin/../../lib\libpic30-elf.a(close.eo)
 .debug_info      0x00cf2b        0x7c6 c:/program files (x86)/microchip/mplab c30/bin/bin/../../lib\libpic30-elf.a(write.eo)
 .debug_info      0x00d6f1        0x4b5 c:/program files (x86)/microchip/mplab c30/bin/bin/../../lib\libpic30-elf.a(remove.eo)
 .debug_info      0x00dba6         0xeb c:/program files (x86)/microchip/mplab c30/bin/bin/../../lib\libpic30-elf.a(sbrk.eo)
 .debug_info      0x00dc91         0xc1 c:/program files (x86)/microchip/mplab c30/bin/bin/../../lib\libpic30-elf.a(c30_uart.eo)
 .debug_info      0x00dd52        0x102 c:/program files (x86)/microchip/mplab c30/bin/bin/../../lib\libpic30-elf.a(brk.elo)
 *(.gnu.linkonce.wi.*)

.debug_abbrev     0x000000       0x237a
 *(.debug_abbrev)
 .debug_abbrev    0x000000         0xbd build/default/production/_ext/1472/utility.o
 .debug_abbrev    0x0000bd        0x13b build/default/production/_ext/1472/Asercom.o
 .debug_abbrev    0x0001f8         0x14 build/default/production/_ext/1472/DataEEPROM.o
 .debug_abbrev    0x00020c         0xe6 build/default/production/_ext/1472/main_c.o
 .debug_abbrev    0x0002f2         0x82 build/default/production/_ext/1472/runaccelerometer.o
 .debug_abbrev    0x000374         0xbf build/default/production/_ext/1472/runbreitenberg_adv.o
 .debug_abbrev    0x000433         0x3f build/default/production/_ext/1472/rungrounddirection.o
 .debug_abbrev    0x000472        0x1af build/default/production/_ext/1472/runlocatesound.o
 .debug_abbrev    0x000621         0x92 build/default/production/_ext/1472/runshow.o
 .debug_abbrev    0x0006b3        0x10f build/default/production/_ext/1472/runwallfollow.o
 .debug_abbrev    0x0007c2         0x61 build/default/production/_ext/1472/translatorI2C.o
 .debug_abbrev    0x000823        0x17d build/default/production/_ext/487958404/e_acc.o
 .debug_abbrev    0x0009a0        0x16c build/default/production/_ext/487958404/e_ad_conv.o
 .debug_abbrev    0x000b0c        0x1a8 build/default/production/_ext/663421589/e_bluetooth.o
 .debug_abbrev    0x000cb4        0x118 build/default/production/_ext/930121020/e_common.o
 .debug_abbrev    0x000dcc         0x14 build/default/production/_ext/930121020/e_interrupt.o
 .debug_abbrev    0x000de0         0xd1 build/default/production/_ext/930121020/e_po6030k_registers.o
 .debug_abbrev    0x000eb1         0x14 build/default/production/_ext/2015481517/e_init_codec_slave.o
 .debug_abbrev    0x000ec5         0x14 build/default/production/_ext/2015481517/e_init_dci_master.o
 .debug_abbrev    0x000ed9         0x14 build/default/production/_ext/2015481517/e_isr_dci.o
 .debug_abbrev    0x000eed         0xbd build/default/production/_ext/2015481517/e_sound.o
 .debug_abbrev    0x000faa         0x14 build/default/production/_ext/2015481517/e_sub_dci_kickoff.o
 .debug_abbrev    0x000fbe        0x192 build/default/production/_ext/417766185/e_I2C_master_module.o
 .debug_abbrev    0x001150         0x9c build/default/production/_ext/417766185/e_I2C_protocol.o
 .debug_abbrev    0x0011ec         0x14 build/default/production/_ext/64492303/e_init_uart1.o
 .debug_abbrev    0x001200         0x14 build/default/production/_ext/64492303/e_uart1_rx_char.o
 .debug_abbrev    0x001214         0x14 build/default/production/_ext/64492303/e_uart1_tx_char.o
 .debug_abbrev    0x001228         0x14 build/default/production/_ext/64492303/e_uart2_rx_char.o
 .debug_abbrev    0x00123c         0x14 build/default/production/_ext/64492303/e_uart2_tx_char.o
 .debug_abbrev    0x001250         0x99 build/default/production/_ext/1259340286/e_init_port.o
 .debug_abbrev    0x0012e9        0x18e build/default/production/_ext/1949949662/e_agenda.o
 .debug_abbrev    0x001477        0x11b build/default/production/_ext/1949949662/e_remote_control.o
 .debug_abbrev    0x001592         0x87 build/default/production/_ext/1514613776/e_calc_po3030k.o
 .debug_abbrev    0x001619         0x87 build/default/production/_ext/1514613776/e_calc_po6030k.o
 .debug_abbrev    0x0016a0         0x14 build/default/production/_ext/760574787/e_init_uart2.o
 .debug_abbrev    0x0016b4        0x107 build/default/production/_ext/879901074/e_led.o
 .debug_abbrev    0x0017bb         0xb3 build/default/production/_ext/487958404/e_micro.o
 .debug_abbrev    0x00186e        0x116 build/default/production/_ext/879901074/e_motors.o
 .debug_abbrev    0x001984        0x12b build/default/production/_ext/1514613776/e_po3030k_registers.o
 .debug_abbrev    0x001aaf         0x99 build/default/production/_ext/487958404/e_prox.o
 .debug_abbrev    0x001b48        0x1a1 build/default/production/_ext/1514613776/e_timers.o
 .debug_abbrev    0x001ce9         0x59 c:/program files (x86)/microchip/mplab c30/bin/bin/../../lib\libpic30-elf.a(_exit.eo)
 .debug_abbrev    0x001d42        0x181 c:/program files (x86)/microchip/mplab c30/bin/bin/../../lib\libpic30-elf.a(read.eo)
 .debug_abbrev    0x001ec3        0x117 c:/program files (x86)/microchip/mplab c30/bin/bin/../../lib\libpic30-elf.a(close.eo)
 .debug_abbrev    0x001fda        0x176 c:/program files (x86)/microchip/mplab c30/bin/bin/../../lib\libpic30-elf.a(write.eo)
 .debug_abbrev    0x002150        0x117 c:/program files (x86)/microchip/mplab c30/bin/bin/../../lib\libpic30-elf.a(remove.eo)
 .debug_abbrev    0x002267         0x6a c:/program files (x86)/microchip/mplab c30/bin/bin/../../lib\libpic30-elf.a(sbrk.eo)
 .debug_abbrev    0x0022d1         0x30 c:/program files (x86)/microchip/mplab c30/bin/bin/../../lib\libpic30-elf.a(c30_uart.eo)
 .debug_abbrev    0x002301         0x79 c:/program files (x86)/microchip/mplab c30/bin/bin/../../lib\libpic30-elf.a(brk.elo)

.debug_line       0x000000       0x90eb
 *(.debug_line)
 .debug_line      0x000000         0xc1 build/default/production/_ext/1472/utility.o
 .debug_line      0x0000c1       0x11b6 build/default/production/_ext/1472/Asercom.o
 .debug_line      0x001277         0x92 build/default/production/_ext/1472/DataEEPROM.o
 .debug_line      0x001309        0x684 build/default/production/_ext/1472/main_c.o
 .debug_line      0x00198d        0x37b build/default/production/_ext/1472/runaccelerometer.o
 .debug_line      0x001d08        0x2d9 build/default/production/_ext/1472/runbreitenberg_adv.o
 .debug_line      0x001fe1         0xf9 build/default/production/_ext/1472/rungrounddirection.o
 .debug_line      0x0020da        0x66e build/default/production/_ext/1472/runlocatesound.o
 .debug_line      0x002748        0x62c build/default/production/_ext/1472/runshow.o
 .debug_line      0x002d74        0x393 build/default/production/_ext/1472/runwallfollow.o
 .debug_line      0x003107        0x1ab build/default/production/_ext/1472/translatorI2C.o
 .debug_line      0x0032b2        0x437 build/default/production/_ext/487958404/e_acc.o
 .debug_line      0x0036e9        0x757 build/default/production/_ext/487958404/e_ad_conv.o
 .debug_line      0x003e40        0xe00 build/default/production/_ext/663421589/e_bluetooth.o
 .debug_line      0x004c40        0x19c build/default/production/_ext/930121020/e_common.o
 .debug_line      0x004ddc         0x78 build/default/production/_ext/930121020/e_interrupt.o
 .debug_line      0x004e54        0x4b7 build/default/production/_ext/930121020/e_po6030k_registers.o
 .debug_line      0x00530b         0x1a build/default/production/_ext/2015481517/e_const_sound.o
 .debug_line      0x005325         0xb1 build/default/production/_ext/2015481517/e_init_codec_slave.o
 .debug_line      0x0053d6         0x75 build/default/production/_ext/2015481517/e_init_dci_master.o
 .debug_line      0x00544b         0x85 build/default/production/_ext/2015481517/e_isr_dci.o
 .debug_line      0x0054d0        0x115 build/default/production/_ext/2015481517/e_sound.o
 .debug_line      0x0055e5         0x8d build/default/production/_ext/2015481517/e_sub_dci_kickoff.o
 .debug_line      0x005672        0x487 build/default/production/_ext/417766185/e_I2C_master_module.o
 .debug_line      0x005af9        0x1ec build/default/production/_ext/417766185/e_I2C_protocol.o
 .debug_line      0x005ce5         0x67 build/default/production/_ext/64492303/e_init_uart1.o
 .debug_line      0x005d4c         0x73 build/default/production/_ext/64492303/e_uart1_rx_char.o
 .debug_line      0x005dbf         0x85 build/default/production/_ext/64492303/e_uart1_tx_char.o
 .debug_line      0x005e44         0x73 build/default/production/_ext/64492303/e_uart2_rx_char.o
 .debug_line      0x005eb7         0x85 build/default/production/_ext/64492303/e_uart2_tx_char.o
 .debug_line      0x005f3c        0x2cd build/default/production/_ext/1259340286/e_init_port.o
 .debug_line      0x006209        0x427 build/default/production/_ext/1949949662/e_agenda.o
 .debug_line      0x006630        0x292 build/default/production/_ext/1949949662/e_remote_control.o
 .debug_line      0x0068c2        0x35c build/default/production/_ext/1514613776/e_calc_po3030k.o
 .debug_line      0x006c1e        0x37c build/default/production/_ext/1514613776/e_calc_po6030k.o
 .debug_line      0x006f9a         0x5a build/default/production/_ext/760574787/e_init_uart2.o
 .debug_line      0x006ff4        0x599 build/default/production/_ext/879901074/e_led.o
 .debug_line      0x00758d        0x17d build/default/production/_ext/487958404/e_micro.o
 .debug_line      0x00770a        0x56d build/default/production/_ext/879901074/e_motors.o
 .debug_line      0x007c77        0xa61 build/default/production/_ext/1514613776/e_po3030k_registers.o
 .debug_line      0x0086d8        0x1b4 build/default/production/_ext/487958404/e_prox.o
 .debug_line      0x00888c        0x226 build/default/production/_ext/1514613776/e_timers.o
 .debug_line      0x008ab2         0x74 c:/program files (x86)/microchip/mplab c30/bin/bin/../../lib\libpic30-elf.a(_exit.eo)
 .debug_line      0x008b26        0x179 c:/program files (x86)/microchip/mplab c30/bin/bin/../../lib\libpic30-elf.a(read.eo)
 .debug_line      0x008c9f         0xe5 c:/program files (x86)/microchip/mplab c30/bin/bin/../../lib\libpic30-elf.a(close.eo)
 .debug_line      0x008d84        0x170 c:/program files (x86)/microchip/mplab c30/bin/bin/../../lib\libpic30-elf.a(write.eo)
 .debug_line      0x008ef4         0xe6 c:/program files (x86)/microchip/mplab c30/bin/bin/../../lib\libpic30-elf.a(remove.eo)
 .debug_line      0x008fda         0x78 c:/program files (x86)/microchip/mplab c30/bin/bin/../../lib\libpic30-elf.a(sbrk.eo)
 .debug_line      0x009052         0x32 c:/program files (x86)/microchip/mplab c30/bin/bin/../../lib\libpic30-elf.a(c30_uart.eo)
 .debug_line      0x009084         0x67 c:/program files (x86)/microchip/mplab c30/bin/bin/../../lib\libpic30-elf.a(brk.elo)

.debug_frame      0x000000       0x2106
 *(.debug_frame)
 .debug_frame     0x000000         0x37 build/default/production/_ext/1472/utility.o
 .debug_frame     0x000037        0x77e build/default/production/_ext/1472/Asercom.o
 .debug_frame     0x0007b5        0x577 build/default/production/_ext/1472/main_c.o
 .debug_frame     0x000d2c        0x1c7 build/default/production/_ext/1472/runaccelerometer.o
 .debug_frame     0x000ef3         0x77 build/default/production/_ext/1472/runbreitenberg_adv.o
 .debug_frame     0x000f6a         0x27 build/default/production/_ext/1472/rungrounddirection.o
 .debug_frame     0x000f91        0x144 build/default/production/_ext/1472/runlocatesound.o
 .debug_frame     0x0010d5        0x15e build/default/production/_ext/1472/runshow.o
 .debug_frame     0x001233         0x96 build/default/production/_ext/1472/runwallfollow.o
 .debug_frame     0x0012c9         0x37 build/default/production/_ext/1472/translatorI2C.o
 .debug_frame     0x001300         0xf7 build/default/production/_ext/487958404/e_acc.o
 .debug_frame     0x0013f7         0x77 build/default/production/_ext/487958404/e_ad_conv.o
 .debug_frame     0x00146e        0x147 build/default/production/_ext/663421589/e_bluetooth.o
 .debug_frame     0x0015b5         0x57 build/default/production/_ext/930121020/e_common.o
 .debug_frame     0x00160c         0xe7 build/default/production/_ext/930121020/e_po6030k_registers.o
 .debug_frame     0x0016f3         0x47 build/default/production/_ext/2015481517/e_sound.o
 .debug_frame     0x00173a         0xe7 build/default/production/_ext/417766185/e_I2C_master_module.o
 .debug_frame     0x001821         0x67 build/default/production/_ext/417766185/e_I2C_protocol.o
 .debug_frame     0x001888         0x27 build/default/production/_ext/1259340286/e_init_port.o
 .debug_frame     0x0018af         0xa7 build/default/production/_ext/1949949662/e_agenda.o
 .debug_frame     0x001956         0x77 build/default/production/_ext/1949949662/e_remote_control.o
 .debug_frame     0x0019cd         0x37 build/default/production/_ext/1514613776/e_calc_po3030k.o
 .debug_frame     0x001a04         0x37 build/default/production/_ext/1514613776/e_calc_po6030k.o
 .debug_frame     0x001a3b        0x167 build/default/production/_ext/879901074/e_led.o
 .debug_frame     0x001ba2         0x57 build/default/production/_ext/487958404/e_micro.o
 .debug_frame     0x001bf9         0xb7 build/default/production/_ext/879901074/e_motors.o
 .debug_frame     0x001cb0        0x277 build/default/production/_ext/1514613776/e_po3030k_registers.o
 .debug_frame     0x001f27         0x57 build/default/production/_ext/487958404/e_prox.o
 .debug_frame     0x001f7e         0x77 build/default/production/_ext/1514613776/e_timers.o
 .debug_frame     0x001ff5         0x27 c:/program files (x86)/microchip/mplab c30/bin/bin/../../lib\libpic30-elf.a(_exit.eo)
 .debug_frame     0x00201c         0x27 c:/program files (x86)/microchip/mplab c30/bin/bin/../../lib\libpic30-elf.a(read.eo)
 .debug_frame     0x002043         0x27 c:/program files (x86)/microchip/mplab c30/bin/bin/../../lib\libpic30-elf.a(close.eo)
 .debug_frame     0x00206a         0x27 c:/program files (x86)/microchip/mplab c30/bin/bin/../../lib\libpic30-elf.a(write.eo)
 .debug_frame     0x002091         0x27 c:/program files (x86)/microchip/mplab c30/bin/bin/../../lib\libpic30-elf.a(remove.eo)
 .debug_frame     0x0020b8         0x27 c:/program files (x86)/microchip/mplab c30/bin/bin/../../lib\libpic30-elf.a(sbrk.eo)
 .debug_frame     0x0020df         0x27 c:/program files (x86)/microchip/mplab c30/bin/bin/../../lib\libpic30-elf.a(brk.elo)

.debug_str        0x000000        0x34e
 *(.debug_str)
 .debug_str       0x000000          0xd build/default/production/_ext/1472/utility.o
 .debug_str       0x00000d          0xd build/default/production/_ext/1472/Asercom.o
 .debug_str       0x00001a          0xd build/default/production/_ext/1472/main_c.o
 .debug_str       0x000027          0xd build/default/production/_ext/1472/runaccelerometer.o
 .debug_str       0x000034         0x2c build/default/production/_ext/1472/runbreitenberg_adv.o
 .debug_str       0x000060          0xd build/default/production/_ext/1472/rungrounddirection.o
 .debug_str       0x00006d         0x30 build/default/production/_ext/1472/runlocatesound.o
 .debug_str       0x00009d         0x3d build/default/production/_ext/1472/runshow.o
 .debug_str       0x0000da          0xd build/default/production/_ext/1472/runwallfollow.o
 .debug_str       0x0000e7          0xd build/default/production/_ext/1472/translatorI2C.o
 .debug_str       0x0000f4         0x32 build/default/production/_ext/487958404/e_acc.o
 .debug_str       0x000126          0xd build/default/production/_ext/487958404/e_ad_conv.o
 .debug_str       0x000133         0x37 build/default/production/_ext/663421589/e_bluetooth.o
 .debug_str       0x00016a          0xd build/default/production/_ext/930121020/e_common.o
 .debug_str       0x000177         0x2b build/default/production/_ext/930121020/e_po6030k_registers.o
 .debug_str       0x0001a2          0xd build/default/production/_ext/2015481517/e_sound.o
 .debug_str       0x0001af          0xd build/default/production/_ext/417766185/e_I2C_master_module.o
 .debug_str       0x0001bc         0x18 build/default/production/_ext/417766185/e_I2C_protocol.o
 .debug_str       0x0001d4          0xd build/default/production/_ext/1259340286/e_init_port.o
 .debug_str       0x0001e1         0x1a build/default/production/_ext/1949949662/e_agenda.o
 .debug_str       0x0001fb          0xd build/default/production/_ext/1949949662/e_remote_control.o
 .debug_str       0x000208         0x18 build/default/production/_ext/1514613776/e_calc_po3030k.o
 .debug_str       0x000220         0x18 build/default/production/_ext/1514613776/e_calc_po6030k.o
 .debug_str       0x000238         0x14 build/default/production/_ext/879901074/e_led.o
 .debug_str       0x00024c         0x16 build/default/production/_ext/487958404/e_micro.o
 .debug_str       0x000262         0x2c build/default/production/_ext/879901074/e_motors.o
 .debug_str       0x00028e         0x31 build/default/production/_ext/1514613776/e_po3030k_registers.o
 .debug_str       0x0002bf         0x1b build/default/production/_ext/487958404/e_prox.o
 .debug_str       0x0002da          0xd build/default/production/_ext/1514613776/e_timers.o
 .debug_str       0x0002e7         0x1b c:/program files (x86)/microchip/mplab c30/bin/bin/../../lib\libpic30-elf.a(read.eo)
 .debug_str       0x000302         0x14 c:/program files (x86)/microchip/mplab c30/bin/bin/../../lib\libpic30-elf.a(close.eo)
 .debug_str       0x000316         0x1b c:/program files (x86)/microchip/mplab c30/bin/bin/../../lib\libpic30-elf.a(write.eo)
 .debug_str       0x000331         0x1d c:/program files (x86)/microchip/mplab c30/bin/bin/../../lib\libpic30-elf.a(remove.eo)

.debug_loc
 *(.debug_loc)

.debug_macinfo
 *(.debug_macinfo)

.debug_pubnames
                  0x000000       0x17d7
 *(.debug_pubnames)
 .debug_pubnames
                  0x000000         0x2b build/default/production/_ext/1472/utility.o
 .debug_pubnames
                  0x00002b         0x22 build/default/production/_ext/1472/Asercom.o
 .debug_pubnames
                  0x00004d         0x39 build/default/production/_ext/1472/main_c.o
 .debug_pubnames
                  0x000086         0x58 build/default/production/_ext/1472/runaccelerometer.o
 .debug_pubnames
                  0x0000de         0xff build/default/production/_ext/1472/runbreitenberg_adv.o
 .debug_pubnames
                  0x0001dd         0x2a build/default/production/_ext/1472/rungrounddirection.o
 .debug_pubnames
                  0x000207        0x120 build/default/production/_ext/1472/runlocatesound.o
 .debug_pubnames
                  0x000327         0x4b build/default/production/_ext/1472/runshow.o
 .debug_pubnames
                  0x000372         0xcc build/default/production/_ext/1472/runwallfollow.o
 .debug_pubnames
                  0x00043e         0x40 build/default/production/_ext/1472/translatorI2C.o
 .debug_pubnames
                  0x00047e        0x128 build/default/production/_ext/487958404/e_acc.o
 .debug_pubnames
                  0x0005a6        0x111 build/default/production/_ext/487958404/e_ad_conv.o
 .debug_pubnames
                  0x0006b7        0x25b build/default/production/_ext/663421589/e_bluetooth.o
 .debug_pubnames
                  0x000912         0x79 build/default/production/_ext/930121020/e_common.o
 .debug_pubnames
                  0x00098b        0x12b build/default/production/_ext/930121020/e_po6030k_registers.o
 .debug_pubnames
                  0x000ab6         0x46 build/default/production/_ext/2015481517/e_sound.o
 .debug_pubnames
                  0x000afc        0x101 build/default/production/_ext/417766185/e_I2C_master_module.o
 .debug_pubnames
                  0x000bfd         0x68 build/default/production/_ext/417766185/e_I2C_protocol.o
 .debug_pubnames
                  0x000c65         0x4c build/default/production/_ext/1259340286/e_init_port.o
 .debug_pubnames
                  0x000cb1         0xdc build/default/production/_ext/1949949662/e_agenda.o
 .debug_pubnames
                  0x000d8d         0x8a build/default/production/_ext/1949949662/e_remote_control.o
 .debug_pubnames
                  0x000e17         0x4d build/default/production/_ext/1514613776/e_calc_po3030k.o
 .debug_pubnames
                  0x000e64         0x4d build/default/production/_ext/1514613776/e_calc_po6030k.o
 .debug_pubnames
                  0x000eb1        0x17d build/default/production/_ext/879901074/e_led.o
 .debug_pubnames
                  0x00102e         0x6d build/default/production/_ext/487958404/e_micro.o
 .debug_pubnames
                  0x00109b         0xdc build/default/production/_ext/879901074/e_motors.o
 .debug_pubnames
                  0x001177        0x42b build/default/production/_ext/1514613776/e_po3030k_registers.o
 .debug_pubnames
                  0x0015a2         0x66 build/default/production/_ext/487958404/e_prox.o
 .debug_pubnames
                  0x001608         0xe0 build/default/production/_ext/1514613776/e_timers.o
 .debug_pubnames
                  0x0016e8         0x1c c:/program files (x86)/microchip/mplab c30/bin/bin/../../lib\libpic30-elf.a(_exit.eo)
 .debug_pubnames
                  0x001704         0x1b c:/program files (x86)/microchip/mplab c30/bin/bin/../../lib\libpic30-elf.a(read.eo)
 .debug_pubnames
                  0x00171f         0x1c c:/program files (x86)/microchip/mplab c30/bin/bin/../../lib\libpic30-elf.a(close.eo)
 .debug_pubnames
                  0x00173b         0x1c c:/program files (x86)/microchip/mplab c30/bin/bin/../../lib\libpic30-elf.a(write.eo)
 .debug_pubnames
                  0x001757         0x1d c:/program files (x86)/microchip/mplab c30/bin/bin/../../lib\libpic30-elf.a(remove.eo)
 .debug_pubnames
                  0x001774         0x1b c:/program files (x86)/microchip/mplab c30/bin/bin/../../lib\libpic30-elf.a(sbrk.eo)
 .debug_pubnames
                  0x00178f         0x21 c:/program files (x86)/microchip/mplab c30/bin/bin/../../lib\libpic30-elf.a(c30_uart.eo)
 .debug_pubnames
                  0x0017b0         0x27 c:/program files (x86)/microchip/mplab c30/bin/bin/../../lib\libpic30-elf.a(brk.elo)

.debug_ranges
 *(.debug_ranges)

.debug_aranges    0x000000        0x5d8
 *(.debug_aranges)
 .debug_aranges
                  0x000000         0x20 build/default/production/_ext/1472/utility.o
 .debug_aranges
                  0x000020         0x20 build/default/production/_ext/1472/Asercom.o
 .debug_aranges
                  0x000040         0x18 build/default/production/_ext/1472/DataEEPROM.o
 .debug_aranges
                  0x000058         0x20 build/default/production/_ext/1472/main_c.o
 .debug_aranges
                  0x000078         0x20 build/default/production/_ext/1472/runaccelerometer.o
 .debug_aranges
                  0x000098         0x20 build/default/production/_ext/1472/runbreitenberg_adv.o
 .debug_aranges
                  0x0000b8         0x20 build/default/production/_ext/1472/rungrounddirection.o
 .debug_aranges
                  0x0000d8         0x20 build/default/production/_ext/1472/runlocatesound.o
 .debug_aranges
                  0x0000f8         0x20 build/default/production/_ext/1472/runshow.o
 .debug_aranges
                  0x000118         0x20 build/default/production/_ext/1472/runwallfollow.o
 .debug_aranges
                  0x000138         0x20 build/default/production/_ext/1472/translatorI2C.o
 .debug_aranges
                  0x000158         0x20 build/default/production/_ext/487958404/e_acc.o
 .debug_aranges
                  0x000178         0x20 build/default/production/_ext/487958404/e_ad_conv.o
 .debug_aranges
                  0x000198         0x20 build/default/production/_ext/663421589/e_bluetooth.o
 .debug_aranges
                  0x0001b8         0x20 build/default/production/_ext/930121020/e_common.o
 .debug_aranges
                  0x0001d8         0x18 build/default/production/_ext/930121020/e_interrupt.o
 .debug_aranges
                  0x0001f0         0x20 build/default/production/_ext/930121020/e_po6030k_registers.o
 .debug_aranges
                  0x000210         0x18 build/default/production/_ext/2015481517/e_init_codec_slave.o
 .debug_aranges
                  0x000228         0x18 build/default/production/_ext/2015481517/e_init_dci_master.o
 .debug_aranges
                  0x000240         0x18 build/default/production/_ext/2015481517/e_isr_dci.o
 .debug_aranges
                  0x000258         0x20 build/default/production/_ext/2015481517/e_sound.o
 .debug_aranges
                  0x000278         0x18 build/default/production/_ext/2015481517/e_sub_dci_kickoff.o
 .debug_aranges
                  0x000290         0x20 build/default/production/_ext/417766185/e_I2C_master_module.o
 .debug_aranges
                  0x0002b0         0x20 build/default/production/_ext/417766185/e_I2C_protocol.o
 .debug_aranges
                  0x0002d0         0x18 build/default/production/_ext/64492303/e_init_uart1.o
 .debug_aranges
                  0x0002e8         0x18 build/default/production/_ext/64492303/e_uart1_rx_char.o
 .debug_aranges
                  0x000300         0x18 build/default/production/_ext/64492303/e_uart1_tx_char.o
 .debug_aranges
                  0x000318         0x18 build/default/production/_ext/64492303/e_uart2_rx_char.o
 .debug_aranges
                  0x000330         0x18 build/default/production/_ext/64492303/e_uart2_tx_char.o
 .debug_aranges
                  0x000348         0x20 build/default/production/_ext/1259340286/e_init_port.o
 .debug_aranges
                  0x000368         0x20 build/default/production/_ext/1949949662/e_agenda.o
 .debug_aranges
                  0x000388         0x20 build/default/production/_ext/1949949662/e_remote_control.o
 .debug_aranges
                  0x0003a8         0x20 build/default/production/_ext/1514613776/e_calc_po3030k.o
 .debug_aranges
                  0x0003c8         0x20 build/default/production/_ext/1514613776/e_calc_po6030k.o
 .debug_aranges
                  0x0003e8         0x18 build/default/production/_ext/760574787/e_init_uart2.o
 .debug_aranges
                  0x000400         0x20 build/default/production/_ext/879901074/e_led.o
 .debug_aranges
                  0x000420         0x20 build/default/production/_ext/487958404/e_micro.o
 .debug_aranges
                  0x000440         0x20 build/default/production/_ext/879901074/e_motors.o
 .debug_aranges
                  0x000460         0x20 build/default/production/_ext/1514613776/e_po3030k_registers.o
 .debug_aranges
                  0x000480         0x20 build/default/production/_ext/487958404/e_prox.o
 .debug_aranges
                  0x0004a0         0x20 build/default/production/_ext/1514613776/e_timers.o
 .debug_aranges
                  0x0004c0         0x28 c:/program files (x86)/microchip/mplab c30/bin/bin/../../lib\libpic30-elf.a(_exit.eo)
 .debug_aranges
                  0x0004e8         0x28 c:/program files (x86)/microchip/mplab c30/bin/bin/../../lib\libpic30-elf.a(read.eo)
 .debug_aranges
                  0x000510         0x28 c:/program files (x86)/microchip/mplab c30/bin/bin/../../lib\libpic30-elf.a(close.eo)
 .debug_aranges
                  0x000538         0x28 c:/program files (x86)/microchip/mplab c30/bin/bin/../../lib\libpic30-elf.a(write.eo)
 .debug_aranges
                  0x000560         0x28 c:/program files (x86)/microchip/mplab c30/bin/bin/../../lib\libpic30-elf.a(remove.eo)
 .debug_aranges
                  0x000588         0x28 c:/program files (x86)/microchip/mplab c30/bin/bin/../../lib\libpic30-elf.a(sbrk.eo)
 .debug_aranges
                  0x0005b0         0x28 c:/program files (x86)/microchip/mplab c30/bin/bin/../../lib\libpic30-elf.a(brk.elo)

.ivt              0x000004         0x7c
                  0x000004          0x4 LONG 0x1b0 DEFINED (__ReservedTrap0)?ABSOLUTE (__ReservedTrap0):ABSOLUTE (__DefaultInterrupt)
                  0x000006          0x4 LONG 0x1b0 DEFINED (__OscillatorFail)?ABSOLUTE (__OscillatorFail):ABSOLUTE (__DefaultInterrupt)
                  0x000008          0x4 LONG 0x1b0 DEFINED (__AddressError)?ABSOLUTE (__AddressError):ABSOLUTE (__DefaultInterrupt)
                  0x00000a          0x4 LONG 0x1b0 DEFINED (__StackError)?ABSOLUTE (__StackError):ABSOLUTE (__DefaultInterrupt)
                  0x00000c          0x4 LONG 0x1b0 DEFINED (__MathError)?ABSOLUTE (__MathError):ABSOLUTE (__DefaultInterrupt)
                  0x00000e          0x4 LONG 0x1b0 DEFINED (__ReservedTrap5)?ABSOLUTE (__ReservedTrap5):ABSOLUTE (__DefaultInterrupt)
                  0x000010          0x4 LONG 0x1b0 DEFINED (__ReservedTrap6)?ABSOLUTE (__ReservedTrap6):ABSOLUTE (__DefaultInterrupt)
                  0x000012          0x4 LONG 0x1b0 DEFINED (__ReservedTrap7)?ABSOLUTE (__ReservedTrap7):ABSOLUTE (__DefaultInterrupt)
                  0x000014          0x4 LONG 0x141a8 DEFINED (__INT0Interrupt)?ABSOLUTE (__INT0Interrupt):ABSOLUTE (__DefaultInterrupt)
                  0x000016          0x4 LONG 0x1b0 DEFINED (__IC1Interrupt)?ABSOLUTE (__IC1Interrupt):ABSOLUTE (__DefaultInterrupt)
                  0x000018          0x4 LONG 0x1b0 DEFINED (__OC1Interrupt)?ABSOLUTE (__OC1Interrupt):ABSOLUTE (__DefaultInterrupt)
                  0x00001a          0x4 LONG 0x1b0 DEFINED (__T1Interrupt)?ABSOLUTE (__T1Interrupt):ABSOLUTE (__DefaultInterrupt)
                  0x00001c          0x4 LONG 0x1b0 DEFINED (__IC2Interrupt)?ABSOLUTE (__IC2Interrupt):ABSOLUTE (__DefaultInterrupt)
                  0x00001e          0x4 LONG 0x1b0 DEFINED (__OC2Interrupt)?ABSOLUTE (__OC2Interrupt):ABSOLUTE (__DefaultInterrupt)
                  0x000020          0x4 LONG 0x14130 DEFINED (__T2Interrupt)?ABSOLUTE (__T2Interrupt):ABSOLUTE (__DefaultInterrupt)
                  0x000022          0x4 LONG 0x1b0 DEFINED (__T3Interrupt)?ABSOLUTE (__T3Interrupt):ABSOLUTE (__DefaultInterrupt)
                  0x000024          0x4 LONG 0x1b0 DEFINED (__SPI1Interrupt)?ABSOLUTE (__SPI1Interrupt):ABSOLUTE (__DefaultInterrupt)
                  0x000026          0x4 LONG 0x14dba DEFINED (__U1RXInterrupt)?ABSOLUTE (__U1RXInterrupt):ABSOLUTE (__DefaultInterrupt)
                  0x000028          0x4 LONG 0x14c26 DEFINED (__U1TXInterrupt)?ABSOLUTE (__U1TXInterrupt):ABSOLUTE (__DefaultInterrupt)
                  0x00002a          0x4 LONG 0x116be DEFINED (__ADCInterrupt)?ABSOLUTE (__ADCInterrupt):ABSOLUTE (__DefaultInterrupt)
                  0x00002c          0x4 LONG 0x1b0 DEFINED (__NVMInterrupt)?ABSOLUTE (__NVMInterrupt):ABSOLUTE (__DefaultInterrupt)
                  0x00002e          0x4 LONG 0x1b0 DEFINED (__SI2CInterrupt)?ABSOLUTE (__SI2CInterrupt):ABSOLUTE (__DefaultInterrupt)
                  0x000030          0x4 LONG 0x12d82 DEFINED (__MI2CInterrupt)?ABSOLUTE (__MI2CInterrupt):ABSOLUTE (__DefaultInterrupt)
                  0x000032          0x4 LONG 0x1b0 DEFINED (__CNInterrupt)?ABSOLUTE (__CNInterrupt):ABSOLUTE (__DefaultInterrupt)
                  0x000034          0x4 LONG 0x1b0 DEFINED (__INT1Interrupt)?ABSOLUTE (__INT1Interrupt):ABSOLUTE (__DefaultInterrupt)
                  0x000036          0x4 LONG 0x1b0 DEFINED (__IC7Interrupt)?ABSOLUTE (__IC7Interrupt):ABSOLUTE (__DefaultInterrupt)
                  0x000038          0x4 LONG 0x1b0 DEFINED (__IC8Interrupt)?ABSOLUTE (__IC8Interrupt):ABSOLUTE (__DefaultInterrupt)
                  0x00003a          0x4 LONG 0x1b0 DEFINED (__OC3Interrupt)?ABSOLUTE (__OC3Interrupt):ABSOLUTE (__DefaultInterrupt)
                  0x00003c          0x4 LONG 0x1b0 DEFINED (__OC4Interrupt)?ABSOLUTE (__OC4Interrupt):ABSOLUTE (__DefaultInterrupt)
                  0x00003e          0x4 LONG 0x14e32 DEFINED (__T4Interrupt)?ABSOLUTE (__T4Interrupt):ABSOLUTE (__DefaultInterrupt)
                  0x000040          0x4 LONG 0x14702 DEFINED (__T5Interrupt)?ABSOLUTE (__T5Interrupt):ABSOLUTE (__DefaultInterrupt)
                  0x000042          0x4 LONG 0x1b0 DEFINED (__INT2Interrupt)?ABSOLUTE (__INT2Interrupt):ABSOLUTE (__DefaultInterrupt)
                  0x000044          0x4 LONG 0x14df6 DEFINED (__U2RXInterrupt)?ABSOLUTE (__U2RXInterrupt):ABSOLUTE (__DefaultInterrupt)
                  0x000046          0x4 LONG 0x14c86 DEFINED (__U2TXInterrupt)?ABSOLUTE (__U2TXInterrupt):ABSOLUTE (__DefaultInterrupt)
                  0x000048          0x4 LONG 0x1b0 DEFINED (__SPI2Interrupt)?ABSOLUTE (__SPI2Interrupt):ABSOLUTE (__DefaultInterrupt)
                  0x00004a          0x4 LONG 0x1b0 DEFINED (__C1Interrupt)?ABSOLUTE (__C1Interrupt):ABSOLUTE (__DefaultInterrupt)
                  0x00004c          0x4 LONG 0x1b0 DEFINED (__IC3Interrupt)?ABSOLUTE (__IC3Interrupt):ABSOLUTE (__DefaultInterrupt)
                  0x00004e          0x4 LONG 0x1b0 DEFINED (__IC4Interrupt)?ABSOLUTE (__IC4Interrupt):ABSOLUTE (__DefaultInterrupt)
                  0x000050          0x4 LONG 0x1b0 DEFINED (__IC5Interrupt)?ABSOLUTE (__IC5Interrupt):ABSOLUTE (__DefaultInterrupt)
                  0x000052          0x4 LONG 0x1b0 DEFINED (__IC6Interrupt)?ABSOLUTE (__IC6Interrupt):ABSOLUTE (__DefaultInterrupt)
                  0x000054          0x4 LONG 0x1b0 DEFINED (__OC5Interrupt)?ABSOLUTE (__OC5Interrupt):ABSOLUTE (__DefaultInterrupt)
                  0x000056          0x4 LONG 0x1b0 DEFINED (__OC6Interrupt)?ABSOLUTE (__OC6Interrupt):ABSOLUTE (__DefaultInterrupt)
                  0x000058          0x4 LONG 0x1b0 DEFINED (__OC7Interrupt)?ABSOLUTE (__OC7Interrupt):ABSOLUTE (__DefaultInterrupt)
                  0x00005a          0x4 LONG 0x1b0 DEFINED (__OC8Interrupt)?ABSOLUTE (__OC8Interrupt):ABSOLUTE (__DefaultInterrupt)
                  0x00005c          0x4 LONG 0x1b0 DEFINED (__INT3Interrupt)?ABSOLUTE (__INT3Interrupt):ABSOLUTE (__DefaultInterrupt)
                  0x00005e          0x4 LONG 0x1b0 DEFINED (__INT4Interrupt)?ABSOLUTE (__INT4Interrupt):ABSOLUTE (__DefaultInterrupt)
                  0x000060          0x4 LONG 0x1b0 DEFINED (__C2Interrupt)?ABSOLUTE (__C2Interrupt):ABSOLUTE (__DefaultInterrupt)
                  0x000062          0x4 LONG 0x1b0 DEFINED (__PWMInterrupt)?ABSOLUTE (__PWMInterrupt):ABSOLUTE (__DefaultInterrupt)
                  0x000064          0x4 LONG 0x1b0 DEFINED (__QEIInterrupt)?ABSOLUTE (__QEIInterrupt):ABSOLUTE (__DefaultInterrupt)
                  0x000066          0x4 LONG 0x14b3a DEFINED (__DCIInterrupt)?ABSOLUTE (__DCIInterrupt):ABSOLUTE (__DefaultInterrupt)
                  0x000068          0x4 LONG 0x1b0 DEFINED (__LVDInterrupt)?ABSOLUTE (__LVDInterrupt):ABSOLUTE (__DefaultInterrupt)
                  0x00006a          0x4 LONG 0x1b0 DEFINED (__FLTAInterrupt)?ABSOLUTE (__FLTAInterrupt):ABSOLUTE (__DefaultInterrupt)
                  0x00006c          0x4 LONG 0x1b0 DEFINED (__FLTBInterrupt)?ABSOLUTE (__FLTBInterrupt):ABSOLUTE (__DefaultInterrupt)
                  0x00006e          0x4 LONG 0x1b0 DEFINED (__Interrupt45)?ABSOLUTE (__Interrupt45):ABSOLUTE (__DefaultInterrupt)
                  0x000070          0x4 LONG 0x1b0 DEFINED (__Interrupt46)?ABSOLUTE (__Interrupt46):ABSOLUTE (__DefaultInterrupt)
                  0x000072          0x4 LONG 0x1b0 DEFINED (__Interrupt47)?ABSOLUTE (__Interrupt47):ABSOLUTE (__DefaultInterrupt)
                  0x000074          0x4 LONG 0x1b0 DEFINED (__Interrupt48)?ABSOLUTE (__Interrupt48):ABSOLUTE (__DefaultInterrupt)
                  0x000076          0x4 LONG 0x1b0 DEFINED (__Interrupt49)?ABSOLUTE (__Interrupt49):ABSOLUTE (__DefaultInterrupt)
                  0x000078          0x4 LONG 0x1b0 DEFINED (__Interrupt50)?ABSOLUTE (__Interrupt50):ABSOLUTE (__DefaultInterrupt)
                  0x00007a          0x4 LONG 0x1b0 DEFINED (__Interrupt51)?ABSOLUTE (__Interrupt51):ABSOLUTE (__DefaultInterrupt)
                  0x00007c          0x4 LONG 0x1b0 DEFINED (__Interrupt52)?ABSOLUTE (__Interrupt52):ABSOLUTE (__DefaultInterrupt)
                  0x00007e          0x4 LONG 0x1b0 DEFINED (__Interrupt53)?ABSOLUTE (__Interrupt53):ABSOLUTE (__DefaultInterrupt)

.aivt             0x000084         0x7c
                  0x000084          0x4 LONG 0x1b0 DEFINED (__AltReservedTrap0)?ABSOLUTE (__AltReservedTrap0):DEFINED (__ReservedTrap0)?ABSOLUTE (__ReservedTrap0):ABSOLUTE (__DefaultInterrupt)
                  0x000086          0x4 LONG 0x1b0 DEFINED (__AltOscillatorFail)?ABSOLUTE (__AltOscillatorFail):DEFINED (__OscillatorFail)?ABSOLUTE (__OscillatorFail):ABSOLUTE (__DefaultInterrupt)
                  0x000088          0x4 LONG 0x1b0 DEFINED (__AltAddressError)?ABSOLUTE (__AltAddressError):DEFINED (__AddressError)?ABSOLUTE (__AddressError):ABSOLUTE (__DefaultInterrupt)
                  0x00008a          0x4 LONG 0x1b0 DEFINED (__AltStackError)?ABSOLUTE (__AltStackError):DEFINED (__StackError)?ABSOLUTE (__StackError):ABSOLUTE (__DefaultInterrupt)
                  0x00008c          0x4 LONG 0x1b0 DEFINED (__AltMathError)?ABSOLUTE (__AltMathError):DEFINED (__MathError)?ABSOLUTE (__MathError):ABSOLUTE (__DefaultInterrupt)
                  0x00008e          0x4 LONG 0x1b0 DEFINED (__AltReservedTrap5)?ABSOLUTE (__AltReservedTrap5):DEFINED (__ReservedTrap5)?ABSOLUTE (__ReservedTrap5):ABSOLUTE (__DefaultInterrupt)
                  0x000090          0x4 LONG 0x1b0 DEFINED (__AltReservedTrap6)?ABSOLUTE (__AltReservedTrap6):DEFINED (__ReservedTrap6)?ABSOLUTE (__ReservedTrap6):ABSOLUTE (__DefaultInterrupt)
                  0x000092          0x4 LONG 0x1b0 DEFINED (__AltReservedTrap7)?ABSOLUTE (__AltReservedTrap7):DEFINED (__ReservedTrap7)?ABSOLUTE (__ReservedTrap7):ABSOLUTE (__DefaultInterrupt)
                  0x000094          0x4 LONG 0x141a8 DEFINED (__AltINT0Interrupt)?ABSOLUTE (__AltINT0Interrupt):DEFINED (__INT0Interrupt)?ABSOLUTE (__INT0Interrupt):ABSOLUTE (__DefaultInterrupt)
                  0x000096          0x4 LONG 0x1b0 DEFINED (__AltIC1Interrupt)?ABSOLUTE (__AltIC1Interrupt):DEFINED (__IC1Interrupt)?ABSOLUTE (__IC1Interrupt):ABSOLUTE (__DefaultInterrupt)
                  0x000098          0x4 LONG 0x1b0 DEFINED (__AltOC1Interrupt)?ABSOLUTE (__AltOC1Interrupt):DEFINED (__OC1Interrupt)?ABSOLUTE (__OC1Interrupt):ABSOLUTE (__DefaultInterrupt)
                  0x00009a          0x4 LONG 0x1b0 DEFINED (__AltT1Interrupt)?ABSOLUTE (__AltT1Interrupt):DEFINED (__T1Interrupt)?ABSOLUTE (__T1Interrupt):ABSOLUTE (__DefaultInterrupt)
                  0x00009c          0x4 LONG 0x1b0 DEFINED (__AltIC2Interrupt)?ABSOLUTE (__AltIC2Interrupt):DEFINED (__IC2Interrupt)?ABSOLUTE (__IC2Interrupt):ABSOLUTE (__DefaultInterrupt)
                  0x00009e          0x4 LONG 0x1b0 DEFINED (__AltOC2Interrupt)?ABSOLUTE (__AltOC2Interrupt):DEFINED (__OC2Interrupt)?ABSOLUTE (__OC2Interrupt):ABSOLUTE (__DefaultInterrupt)
                  0x0000a0          0x4 LONG 0x14130 DEFINED (__AltT2Interrupt)?ABSOLUTE (__AltT2Interrupt):DEFINED (__T2Interrupt)?ABSOLUTE (__T2Interrupt):ABSOLUTE (__DefaultInterrupt)
                  0x0000a2          0x4 LONG 0x1b0 DEFINED (__AltT3Interrupt)?ABSOLUTE (__AltT3Interrupt):DEFINED (__T3Interrupt)?ABSOLUTE (__T3Interrupt):ABSOLUTE (__DefaultInterrupt)
                  0x0000a4          0x4 LONG 0x1b0 DEFINED (__AltSPI1Interrupt)?ABSOLUTE (__AltSPI1Interrupt):DEFINED (__SPI1Interrupt)?ABSOLUTE (__SPI1Interrupt):ABSOLUTE (__DefaultInterrupt)
                  0x0000a6          0x4 LONG 0x14dba DEFINED (__AltU1RXInterrupt)?ABSOLUTE (__AltU1RXInterrupt):DEFINED (__U1RXInterrupt)?ABSOLUTE (__U1RXInterrupt):ABSOLUTE (__DefaultInterrupt)
                  0x0000a8          0x4 LONG 0x14c26 DEFINED (__AltU1TXInterrupt)?ABSOLUTE (__AltU1TXInterrupt):DEFINED (__U1TXInterrupt)?ABSOLUTE (__U1TXInterrupt):ABSOLUTE (__DefaultInterrupt)
                  0x0000aa          0x4 LONG 0x116be DEFINED (__AltADCInterrupt)?ABSOLUTE (__AltADCInterrupt):DEFINED (__ADCInterrupt)?ABSOLUTE (__ADCInterrupt):ABSOLUTE (__DefaultInterrupt)
                  0x0000ac          0x4 LONG 0x1b0 DEFINED (__AltNVMInterrupt)?ABSOLUTE (__AltNVMInterrupt):DEFINED (__NVMInterrupt)?ABSOLUTE (__NVMInterrupt):ABSOLUTE (__DefaultInterrupt)
                  0x0000ae          0x4 LONG 0x1b0 DEFINED (__AltSI2CInterrupt)?ABSOLUTE (__AltSI2CInterrupt):DEFINED (__SI2CInterrupt)?ABSOLUTE (__SI2CInterrupt):ABSOLUTE (__DefaultInterrupt)
                  0x0000b0          0x4 LONG 0x12d82 DEFINED (__AltMI2CInterrupt)?ABSOLUTE (__AltMI2CInterrupt):DEFINED (__MI2CInterrupt)?ABSOLUTE (__MI2CInterrupt):ABSOLUTE (__DefaultInterrupt)
                  0x0000b2          0x4 LONG 0x1b0 DEFINED (__AltCNInterrupt)?ABSOLUTE (__AltCNInterrupt):DEFINED (__CNInterrupt)?ABSOLUTE (__CNInterrupt):ABSOLUTE (__DefaultInterrupt)
                  0x0000b4          0x4 LONG 0x1b0 DEFINED (__AltINT1Interrupt)?ABSOLUTE (__AltINT1Interrupt):DEFINED (__INT1Interrupt)?ABSOLUTE (__INT1Interrupt):ABSOLUTE (__DefaultInterrupt)
                  0x0000b6          0x4 LONG 0x1b0 DEFINED (__AltIC7Interrupt)?ABSOLUTE (__AltIC7Interrupt):DEFINED (__IC7Interrupt)?ABSOLUTE (__IC7Interrupt):ABSOLUTE (__DefaultInterrupt)
                  0x0000b8          0x4 LONG 0x1b0 DEFINED (__AltIC8Interrupt)?ABSOLUTE (__AltIC8Interrupt):DEFINED (__IC8Interrupt)?ABSOLUTE (__IC8Interrupt):ABSOLUTE (__DefaultInterrupt)
                  0x0000ba          0x4 LONG 0x1b0 DEFINED (__AltOC3Interrupt)?ABSOLUTE (__AltOC3Interrupt):DEFINED (__OC3Interrupt)?ABSOLUTE (__OC3Interrupt):ABSOLUTE (__DefaultInterrupt)
                  0x0000bc          0x4 LONG 0x1b0 DEFINED (__AltOC4Interrupt)?ABSOLUTE (__AltOC4Interrupt):DEFINED (__OC4Interrupt)?ABSOLUTE (__OC4Interrupt):ABSOLUTE (__DefaultInterrupt)
                  0x0000be          0x4 LONG 0x14e32 DEFINED (__AltT4Interrupt)?ABSOLUTE (__AltT4Interrupt):DEFINED (__T4Interrupt)?ABSOLUTE (__T4Interrupt):ABSOLUTE (__DefaultInterrupt)
                  0x0000c0          0x4 LONG 0x14702 DEFINED (__AltT5Interrupt)?ABSOLUTE (__AltT5Interrupt):DEFINED (__T5Interrupt)?ABSOLUTE (__T5Interrupt):ABSOLUTE (__DefaultInterrupt)
                  0x0000c2          0x4 LONG 0x1b0 DEFINED (__AltINT2Interrupt)?ABSOLUTE (__AltINT2Interrupt):DEFINED (__INT2Interrupt)?ABSOLUTE (__INT2Interrupt):ABSOLUTE (__DefaultInterrupt)
                  0x0000c4          0x4 LONG 0x14df6 DEFINED (__AltU2RXInterrupt)?ABSOLUTE (__AltU2RXInterrupt):DEFINED (__U2RXInterrupt)?ABSOLUTE (__U2RXInterrupt):ABSOLUTE (__DefaultInterrupt)
                  0x0000c6          0x4 LONG 0x14c86 DEFINED (__AltU2TXInterrupt)?ABSOLUTE (__AltU2TXInterrupt):DEFINED (__U2TXInterrupt)?ABSOLUTE (__U2TXInterrupt):ABSOLUTE (__DefaultInterrupt)
                  0x0000c8          0x4 LONG 0x1b0 DEFINED (__AltSPI2Interrupt)?ABSOLUTE (__AltSPI2Interrupt):DEFINED (__SPI2Interrupt)?ABSOLUTE (__SPI2Interrupt):ABSOLUTE (__DefaultInterrupt)
                  0x0000ca          0x4 LONG 0x1b0 DEFINED (__AltC1Interrupt)?ABSOLUTE (__AltC1Interrupt):DEFINED (__C1Interrupt)?ABSOLUTE (__C1Interrupt):ABSOLUTE (__DefaultInterrupt)
                  0x0000cc          0x4 LONG 0x1b0 DEFINED (__AltIC3Interrupt)?ABSOLUTE (__AltIC3Interrupt):DEFINED (__IC3Interrupt)?ABSOLUTE (__IC3Interrupt):ABSOLUTE (__DefaultInterrupt)
                  0x0000ce          0x4 LONG 0x1b0 DEFINED (__AltIC4Interrupt)?ABSOLUTE (__AltIC4Interrupt):DEFINED (__IC4Interrupt)?ABSOLUTE (__IC4Interrupt):ABSOLUTE (__DefaultInterrupt)
                  0x0000d0          0x4 LONG 0x1b0 DEFINED (__AltIC5Interrupt)?ABSOLUTE (__AltIC5Interrupt):DEFINED (__IC5Interrupt)?ABSOLUTE (__IC5Interrupt):ABSOLUTE (__DefaultInterrupt)
                  0x0000d2          0x4 LONG 0x1b0 DEFINED (__AltIC6Interrupt)?ABSOLUTE (__AltIC6Interrupt):DEFINED (__IC6Interrupt)?ABSOLUTE (__IC6Interrupt):ABSOLUTE (__DefaultInterrupt)
                  0x0000d4          0x4 LONG 0x1b0 DEFINED (__AltOC5Interrupt)?ABSOLUTE (__AltOC5Interrupt):DEFINED (__OC5Interrupt)?ABSOLUTE (__OC5Interrupt):ABSOLUTE (__DefaultInterrupt)
                  0x0000d6          0x4 LONG 0x1b0 DEFINED (__AltOC6Interrupt)?ABSOLUTE (__AltOC6Interrupt):DEFINED (__OC6Interrupt)?ABSOLUTE (__OC6Interrupt):ABSOLUTE (__DefaultInterrupt)
                  0x0000d8          0x4 LONG 0x1b0 DEFINED (__AltOC7Interrupt)?ABSOLUTE (__AltOC7Interrupt):DEFINED (__OC7Interrupt)?ABSOLUTE (__OC7Interrupt):ABSOLUTE (__DefaultInterrupt)
                  0x0000da          0x4 LONG 0x1b0 DEFINED (__AltOC8Interrupt)?ABSOLUTE (__AltOC8Interrupt):DEFINED (__OC8Interrupt)?ABSOLUTE (__OC8Interrupt):ABSOLUTE (__DefaultInterrupt)
                  0x0000dc          0x4 LONG 0x1b0 DEFINED (__AltINT3Interrupt)?ABSOLUTE (__AltINT3Interrupt):DEFINED (__INT3Interrupt)?ABSOLUTE (__INT3Interrupt):ABSOLUTE (__DefaultInterrupt)
                  0x0000de          0x4 LONG 0x1b0 DEFINED (__AltINT4Interrupt)?ABSOLUTE (__AltINT4Interrupt):DEFINED (__INT4Interrupt)?ABSOLUTE (__INT4Interrupt):ABSOLUTE (__DefaultInterrupt)
                  0x0000e0          0x4 LONG 0x1b0 DEFINED (__AltC2Interrupt)?ABSOLUTE (__AltC2Interrupt):DEFINED (__C2Interrupt)?ABSOLUTE (__C2Interrupt):ABSOLUTE (__DefaultInterrupt)
                  0x0000e2          0x4 LONG 0x1b0 DEFINED (__AltPWMInterrupt)?ABSOLUTE (__AltPWMInterrupt):DEFINED (__PWMInterrupt)?ABSOLUTE (__PWMInterrupt):ABSOLUTE (__DefaultInterrupt)
                  0x0000e4          0x4 LONG 0x1b0 DEFINED (__AltQEIInterrupt)?ABSOLUTE (__AltQEIInterrupt):DEFINED (__QEIInterrupt)?ABSOLUTE (__QEIInterrupt):ABSOLUTE (__DefaultInterrupt)
                  0x0000e6          0x4 LONG 0x14b3a DEFINED (__AltDCIInterrupt)?ABSOLUTE (__AltDCIInterrupt):DEFINED (__DCIInterrupt)?ABSOLUTE (__DCIInterrupt):ABSOLUTE (__DefaultInterrupt)
                  0x0000e8          0x4 LONG 0x1b0 DEFINED (__AltLVDInterrupt)?ABSOLUTE (__AltLVDInterrupt):DEFINED (__LVDInterrupt)?ABSOLUTE (__LVDInterrupt):ABSOLUTE (__DefaultInterrupt)
                  0x0000ea          0x4 LONG 0x1b0 DEFINED (__AltFLTAInterrupt)?ABSOLUTE (__AltFLTAInterrupt):DEFINED (__FLTAInterrupt)?ABSOLUTE (__FLTAInterrupt):ABSOLUTE (__DefaultInterrupt)
                  0x0000ec          0x4 LONG 0x1b0 DEFINED (__AltFLTBInterrupt)?ABSOLUTE (__AltFLTBInterrupt):DEFINED (__FLTBInterrupt)?ABSOLUTE (__FLTBInterrupt):ABSOLUTE (__DefaultInterrupt)
                  0x0000ee          0x4 LONG 0x1b0 DEFINED (__AltInterrupt45)?ABSOLUTE (__AltInterrupt45):DEFINED (__Interrupt45)?ABSOLUTE (__Interrupt45):ABSOLUTE (__DefaultInterrupt)
                  0x0000f0          0x4 LONG 0x1b0 DEFINED (__AltInterrupt46)?ABSOLUTE (__AltInterrupt46):DEFINED (__Interrupt46)?ABSOLUTE (__Interrupt46):ABSOLUTE (__DefaultInterrupt)
                  0x0000f2          0x4 LONG 0x1b0 DEFINED (__AltInterrupt47)?ABSOLUTE (__AltInterrupt47):DEFINED (__Interrupt47)?ABSOLUTE (__Interrupt47):ABSOLUTE (__DefaultInterrupt)
                  0x0000f4          0x4 LONG 0x1b0 DEFINED (__AltInterrupt48)?ABSOLUTE (__AltInterrupt48):DEFINED (__Interrupt48)?ABSOLUTE (__Interrupt48):ABSOLUTE (__DefaultInterrupt)
                  0x0000f6          0x4 LONG 0x1b0 DEFINED (__AltInterrupt49)?ABSOLUTE (__AltInterrupt49):DEFINED (__Interrupt49)?ABSOLUTE (__Interrupt49):ABSOLUTE (__DefaultInterrupt)
                  0x0000f8          0x4 LONG 0x1b0 DEFINED (__AltInterrupt50)?ABSOLUTE (__AltInterrupt50):DEFINED (__Interrupt50)?ABSOLUTE (__Interrupt50):ABSOLUTE (__DefaultInterrupt)
                  0x0000fa          0x4 LONG 0x1b0 DEFINED (__AltInterrupt51)?ABSOLUTE (__AltInterrupt51):DEFINED (__Interrupt51)?ABSOLUTE (__Interrupt51):ABSOLUTE (__DefaultInterrupt)
                  0x0000fc          0x4 LONG 0x1b0 DEFINED (__AltInterrupt52)?ABSOLUTE (__AltInterrupt52):DEFINED (__Interrupt52)?ABSOLUTE (__Interrupt52):ABSOLUTE (__DefaultInterrupt)
                  0x0000fe          0x4 LONG 0x1b0 DEFINED (__AltInterrupt53)?ABSOLUTE (__AltInterrupt53):DEFINED (__Interrupt53)?ABSOLUTE (__Interrupt53):ABSOLUTE (__DefaultInterrupt)
                    0x0000                  WREG0 = 0x0
                    0x0000                  _WREG0 = 0x0
                    0x0002                  WREG1 = 0x2
                    0x0002                  _WREG1 = 0x2
                    0x0004                  WREG2 = 0x4
                    0x0004                  _WREG2 = 0x4
                    0x0006                  WREG3 = 0x6
                    0x0006                  _WREG3 = 0x6
                    0x0008                  WREG4 = 0x8
                    0x0008                  _WREG4 = 0x8
                    0x000a                  WREG5 = 0xa
                    0x000a                  _WREG5 = 0xa
                    0x000c                  WREG6 = 0xc
                    0x000c                  _WREG6 = 0xc
                    0x000e                  WREG7 = 0xe
                    0x000e                  _WREG7 = 0xe
                    0x0010                  WREG8 = 0x10
                    0x0010                  _WREG8 = 0x10
                    0x0012                  WREG9 = 0x12
                    0x0012                  _WREG9 = 0x12
                    0x0014                  WREG10 = 0x14
                    0x0014                  _WREG10 = 0x14
                    0x0016                  WREG11 = 0x16
                    0x0016                  _WREG11 = 0x16
                    0x0018                  WREG12 = 0x18
                    0x0018                  _WREG12 = 0x18
                    0x001a                  WREG13 = 0x1a
                    0x001a                  _WREG13 = 0x1a
                    0x001c                  WREG14 = 0x1c
                    0x001c                  _WREG14 = 0x1c
                    0x001e                  WREG15 = 0x1e
                    0x001e                  _WREG15 = 0x1e
                    0x0020                  SPLIM = 0x20
                    0x0020                  _SPLIM = 0x20
                    0x0022                  ACCAL = 0x22
                    0x0022                  _ACCAL = 0x22
                    0x0024                  ACCAH = 0x24
                    0x0024                  _ACCAH = 0x24
                    0x0026                  ACCAU = 0x26
                    0x0026                  _ACCAU = 0x26
                    0x0028                  ACCBL = 0x28
                    0x0028                  _ACCBL = 0x28
                    0x002a                  ACCBH = 0x2a
                    0x002a                  _ACCBH = 0x2a
                    0x002c                  ACCBU = 0x2c
                    0x002c                  _ACCBU = 0x2c
                    0x002e                  PCL = 0x2e
                    0x002e                  _PCL = 0x2e
                    0x0030                  PCH = 0x30
                    0x0030                  _PCH = 0x30
                    0x0032                  TBLPAG = 0x32
                    0x0032                  _TBLPAG = 0x32
                    0x0034                  PSVPAG = 0x34
                    0x0034                  _PSVPAG = 0x34
                    0x0036                  RCOUNT = 0x36
                    0x0036                  _RCOUNT = 0x36
                    0x0038                  DCOUNT = 0x38
                    0x0038                  _DCOUNT = 0x38
                    0x003a                  DOSTARTL = 0x3a
                    0x003a                  _DOSTARTL = 0x3a
                    0x003c                  DOSTARTH = 0x3c
                    0x003c                  _DOSTARTH = 0x3c
                    0x003e                  DOENDL = 0x3e
                    0x003e                  _DOENDL = 0x3e
                    0x0040                  DOENDH = 0x40
                    0x0040                  _DOENDH = 0x40
                    0x0042                  SR = 0x42
                    0x0042                  _SR = 0x42
                    0x0042                  _SRbits = 0x42
                    0x0044                  CORCON = 0x44
                    0x0044                  _CORCON = 0x44
                    0x0044                  _CORCONbits = 0x44
                    0x0046                  MODCON = 0x46
                    0x0046                  _MODCON = 0x46
                    0x0046                  _MODCONbits = 0x46
                    0x0048                  XMODSRT = 0x48
                    0x0048                  _XMODSRT = 0x48
                    0x004a                  XMODEND = 0x4a
                    0x004a                  _XMODEND = 0x4a
                    0x004c                  YMODSRT = 0x4c
                    0x004c                  _YMODSRT = 0x4c
                    0x004e                  YMODEND = 0x4e
                    0x004e                  _YMODEND = 0x4e
                    0x0050                  XBREV = 0x50
                    0x0050                  _XBREV = 0x50
                    0x0050                  _XBREVbits = 0x50
                    0x0052                  DISICNT = 0x52
                    0x0052                  _DISICNT = 0x52
                    0x0052                  _DISICNTbits = 0x52
                    0x0080                  INTCON1 = 0x80
                    0x0080                  _INTCON1 = 0x80
                    0x0080                  _INTCON1bits = 0x80
                    0x0082                  INTCON2 = 0x82
                    0x0082                  _INTCON2 = 0x82
                    0x0082                  _INTCON2bits = 0x82
                    0x0084                  IFS0 = 0x84
                    0x0084                  _IFS0 = 0x84
                    0x0084                  _IFS0bits = 0x84
                    0x0086                  IFS1 = 0x86
                    0x0086                  _IFS1 = 0x86
                    0x0086                  _IFS1bits = 0x86
                    0x0088                  IFS2 = 0x88
                    0x0088                  _IFS2 = 0x88
                    0x0088                  _IFS2bits = 0x88
                    0x008c                  IEC0 = 0x8c
                    0x008c                  _IEC0 = 0x8c
                    0x008c                  _IEC0bits = 0x8c
                    0x008e                  IEC1 = 0x8e
                    0x008e                  _IEC1 = 0x8e
                    0x008e                  _IEC1bits = 0x8e
                    0x0090                  IEC2 = 0x90
                    0x0090                  _IEC2 = 0x90
                    0x0090                  _IEC2bits = 0x90
                    0x0094                  IPC0 = 0x94
                    0x0094                  _IPC0 = 0x94
                    0x0094                  _IPC0bits = 0x94
                    0x0096                  IPC1 = 0x96
                    0x0096                  _IPC1 = 0x96
                    0x0096                  _IPC1bits = 0x96
                    0x0098                  IPC2 = 0x98
                    0x0098                  _IPC2 = 0x98
                    0x0098                  _IPC2bits = 0x98
                    0x009a                  IPC3 = 0x9a
                    0x009a                  _IPC3 = 0x9a
                    0x009a                  _IPC3bits = 0x9a
                    0x009c                  IPC4 = 0x9c
                    0x009c                  _IPC4 = 0x9c
                    0x009c                  _IPC4bits = 0x9c
                    0x009e                  IPC5 = 0x9e
                    0x009e                  _IPC5 = 0x9e
                    0x009e                  _IPC5bits = 0x9e
                    0x00a0                  IPC6 = 0xa0
                    0x00a0                  _IPC6 = 0xa0
                    0x00a0                  _IPC6bits = 0xa0
                    0x00a2                  IPC7 = 0xa2
                    0x00a2                  _IPC7 = 0xa2
                    0x00a2                  _IPC7bits = 0xa2
                    0x00a4                  IPC8 = 0xa4
                    0x00a4                  _IPC8 = 0xa4
                    0x00a4                  _IPC8bits = 0xa4
                    0x00a6                  IPC9 = 0xa6
                    0x00a6                  _IPC9 = 0xa6
                    0x00a6                  _IPC9bits = 0xa6
                    0x00a8                  IPC10 = 0xa8
                    0x00a8                  _IPC10 = 0xa8
                    0x00a8                  _IPC10bits = 0xa8
                    0x00b0                  INTTREG = 0xb0
                    0x00b0                  _INTTREG = 0xb0
                    0x00b0                  _INTTREGbits = 0xb0
                    0x00c0                  CNEN1 = 0xc0
                    0x00c0                  _CNEN1 = 0xc0
                    0x00c0                  _CNEN1bits = 0xc0
                    0x00c2                  CNEN2 = 0xc2
                    0x00c2                  _CNEN2 = 0xc2
                    0x00c2                  _CNEN2bits = 0xc2
                    0x00c4                  CNPU1 = 0xc4
                    0x00c4                  _CNPU1 = 0xc4
                    0x00c4                  _CNPU1bits = 0xc4
                    0x00c6                  CNPU2 = 0xc6
                    0x00c6                  _CNPU2 = 0xc6
                    0x00c6                  _CNPU2bits = 0xc6
                    0x0100                  TMR1 = 0x100
                    0x0100                  _TMR1 = 0x100
                    0x0102                  PR1 = 0x102
                    0x0102                  _PR1 = 0x102
                    0x0104                  T1CON = 0x104
                    0x0104                  _T1CON = 0x104
                    0x0104                  _T1CONbits = 0x104
                    0x0106                  TMR2 = 0x106
                    0x0106                  _TMR2 = 0x106
                    0x0108                  TMR3HLD = 0x108
                    0x0108                  _TMR3HLD = 0x108
                    0x010a                  TMR3 = 0x10a
                    0x010a                  _TMR3 = 0x10a
                    0x010c                  PR2 = 0x10c
                    0x010c                  _PR2 = 0x10c
                    0x010e                  PR3 = 0x10e
                    0x010e                  _PR3 = 0x10e
                    0x0110                  T2CON = 0x110
                    0x0110                  _T2CON = 0x110
                    0x0110                  _T2CONbits = 0x110
                    0x0112                  T3CON = 0x112
                    0x0112                  _T3CON = 0x112
                    0x0112                  _T3CONbits = 0x112
                    0x0114                  TMR4 = 0x114
                    0x0114                  _TMR4 = 0x114
                    0x0116                  TMR5HLD = 0x116
                    0x0116                  _TMR5HLD = 0x116
                    0x0118                  TMR5 = 0x118
                    0x0118                  _TMR5 = 0x118
                    0x011a                  PR4 = 0x11a
                    0x011a                  _PR4 = 0x11a
                    0x011c                  PR5 = 0x11c
                    0x011c                  _PR5 = 0x11c
                    0x011e                  T4CON = 0x11e
                    0x011e                  _T4CON = 0x11e
                    0x011e                  _T4CONbits = 0x11e
                    0x0120                  T5CON = 0x120
                    0x0120                  _T5CON = 0x120
                    0x0120                  _T5CONbits = 0x120
                    0x0140                  IC1BUF = 0x140
                    0x0140                  _IC1BUF = 0x140
                    0x0142                  IC1CON = 0x142
                    0x0142                  _IC1CON = 0x142
                    0x0142                  _IC1CONbits = 0x142
                    0x0144                  IC2BUF = 0x144
                    0x0144                  _IC2BUF = 0x144
                    0x0146                  IC2CON = 0x146
                    0x0146                  _IC2CON = 0x146
                    0x0146                  _IC2CONbits = 0x146
                    0x0148                  IC3BUF = 0x148
                    0x0148                  _IC3BUF = 0x148
                    0x014a                  IC3CON = 0x14a
                    0x014a                  _IC3CON = 0x14a
                    0x014a                  _IC3CONbits = 0x14a
                    0x014c                  IC4BUF = 0x14c
                    0x014c                  _IC4BUF = 0x14c
                    0x014e                  IC4CON = 0x14e
                    0x014e                  _IC4CON = 0x14e
                    0x014e                  _IC4CONbits = 0x14e
                    0x0150                  IC5BUF = 0x150
                    0x0150                  _IC5BUF = 0x150
                    0x0152                  IC5CON = 0x152
                    0x0152                  _IC5CON = 0x152
                    0x0152                  _IC5CONbits = 0x152
                    0x0154                  IC6BUF = 0x154
                    0x0154                  _IC6BUF = 0x154
                    0x0156                  IC6CON = 0x156
                    0x0156                  _IC6CON = 0x156
                    0x0156                  _IC6CONbits = 0x156
                    0x0158                  IC7BUF = 0x158
                    0x0158                  _IC7BUF = 0x158
                    0x015a                  IC7CON = 0x15a
                    0x015a                  _IC7CON = 0x15a
                    0x015a                  _IC7CONbits = 0x15a
                    0x015c                  IC8BUF = 0x15c
                    0x015c                  _IC8BUF = 0x15c
                    0x015e                  IC8CON = 0x15e
                    0x015e                  _IC8CON = 0x15e
                    0x015e                  _IC8CONbits = 0x15e
                    0x0180                  OC1RS = 0x180
                    0x0180                  _OC1RS = 0x180
                    0x0182                  OC1R = 0x182
                    0x0182                  _OC1R = 0x182
                    0x0184                  OC1CON = 0x184
                    0x0184                  _OC1CON = 0x184
                    0x0184                  _OC1CONbits = 0x184
                    0x0186                  OC2RS = 0x186
                    0x0186                  _OC2RS = 0x186
                    0x0188                  OC2R = 0x188
                    0x0188                  _OC2R = 0x188
                    0x018a                  OC2CON = 0x18a
                    0x018a                  _OC2CON = 0x18a
                    0x018a                  _OC2CONbits = 0x18a
                    0x018c                  OC3RS = 0x18c
                    0x018c                  _OC3RS = 0x18c
                    0x018e                  OC3R = 0x18e
                    0x018e                  _OC3R = 0x18e
                    0x0190                  OC3CON = 0x190
                    0x0190                  _OC3CON = 0x190
                    0x0190                  _OC3CONbits = 0x190
                    0x0192                  OC4RS = 0x192
                    0x0192                  _OC4RS = 0x192
                    0x0194                  OC4R = 0x194
                    0x0194                  _OC4R = 0x194
                    0x0196                  OC4CON = 0x196
                    0x0196                  _OC4CON = 0x196
                    0x0196                  _OC4CONbits = 0x196
                    0x0198                  OC5RS = 0x198
                    0x0198                  _OC5RS = 0x198
                    0x019a                  OC5R = 0x19a
                    0x019a                  _OC5R = 0x19a
                    0x019c                  OC5CON = 0x19c
                    0x019c                  _OC5CON = 0x19c
                    0x019c                  _OC5CONbits = 0x19c
                    0x019e                  OC6RS = 0x19e
                    0x019e                  _OC6RS = 0x19e
                    0x01a0                  OC6R = 0x1a0
                    0x01a0                  _OC6R = 0x1a0
                    0x01a2                  OC6CON = 0x1a2
                    0x01a2                  _OC6CON = 0x1a2
                    0x01a2                  _OC6CONbits = 0x1a2
                    0x01a4                  OC7RS = 0x1a4
                    0x01a4                  _OC7RS = 0x1a4
                    0x01a6                  OC7R = 0x1a6
                    0x01a6                  _OC7R = 0x1a6
                    0x01a8                  OC7CON = 0x1a8
                    0x01a8                  _OC7CON = 0x1a8
                    0x01a8                  _OC7CONbits = 0x1a8
                    0x01aa                  OC8RS = 0x1aa
                    0x01aa                  _OC8RS = 0x1aa
                    0x01ac                  OC8R = 0x1ac
                    0x01ac                  _OC8R = 0x1ac
                    0x01ae                  OC8CON = 0x1ae
                    0x01ae                  _OC8CON = 0x1ae
                    0x01ae                  _OC8CONbits = 0x1ae
                    0x0200                  I2CRCV = 0x200
                    0x0200                  _I2CRCV = 0x200
                    0x0200                  _I2CRCVbits = 0x200
                    0x0202                  I2CTRN = 0x202
                    0x0202                  _I2CTRN = 0x202
                    0x0202                  _I2CTRNbits = 0x202
                    0x0204                  I2CBRG = 0x204
                    0x0204                  _I2CBRG = 0x204
                    0x0204                  _I2CBRGbits = 0x204
                    0x0206                  I2CCON = 0x206
                    0x0206                  _I2CCON = 0x206
                    0x0206                  _I2CCONbits = 0x206
                    0x0208                  I2CSTAT = 0x208
                    0x0208                  _I2CSTAT = 0x208
                    0x0208                  _I2CSTATbits = 0x208
                    0x020a                  I2CADD = 0x20a
                    0x020a                  _I2CADD = 0x20a
                    0x020a                  _I2CADDbits = 0x20a
                    0x020c                  U1MODE = 0x20c
                    0x020c                  _U1MODE = 0x20c
                    0x020c                  _U1MODEbits = 0x20c
                    0x020e                  U1STA = 0x20e
                    0x020e                  _U1STA = 0x20e
                    0x020e                  _U1STAbits = 0x20e
                    0x0210                  U1TXREG = 0x210
                    0x0210                  _U1TXREG = 0x210
                    0x0210                  _U1TXREGbits = 0x210
                    0x0212                  U1RXREG = 0x212
                    0x0212                  _U1RXREG = 0x212
                    0x0212                  _U1RXREGbits = 0x212
                    0x0214                  U1BRG = 0x214
                    0x0214                  _U1BRG = 0x214
                    0x0216                  U2MODE = 0x216
                    0x0216                  _U2MODE = 0x216
                    0x0216                  _U2MODEbits = 0x216
                    0x0218                  U2STA = 0x218
                    0x0218                  _U2STA = 0x218
                    0x0218                  _U2STAbits = 0x218
                    0x021a                  U2TXREG = 0x21a
                    0x021a                  _U2TXREG = 0x21a
                    0x021a                  _U2TXREGbits = 0x21a
                    0x021c                  U2RXREG = 0x21c
                    0x021c                  _U2RXREG = 0x21c
                    0x021c                  _U2RXREGbits = 0x21c
                    0x021e                  U2BRG = 0x21e
                    0x021e                  _U2BRG = 0x21e
                    0x0220                  SPI1STAT = 0x220
                    0x0220                  _SPI1STAT = 0x220
                    0x0220                  _SPI1STATbits = 0x220
                    0x0222                  SPI1CON = 0x222
                    0x0222                  _SPI1CON = 0x222
                    0x0222                  _SPI1CONbits = 0x222
                    0x0224                  SPI1BUF = 0x224
                    0x0224                  _SPI1BUF = 0x224
                    0x0226                  SPI2STAT = 0x226
                    0x0226                  _SPI2STAT = 0x226
                    0x0226                  _SPI2STATbits = 0x226
                    0x0228                  SPI2CON = 0x228
                    0x0228                  _SPI2CON = 0x228
                    0x0228                  _SPI2CONbits = 0x228
                    0x022a                  SPI2BUF = 0x22a
                    0x022a                  _SPI2BUF = 0x22a
                    0x0240                  DCICON1 = 0x240
                    0x0240                  _DCICON1 = 0x240
                    0x0240                  _DCICON1bits = 0x240
                    0x0242                  DCICON2 = 0x242
                    0x0242                  _DCICON2 = 0x242
                    0x0242                  _DCICON2bits = 0x242
                    0x0244                  DCICON3 = 0x244
                    0x0244                  _DCICON3 = 0x244
                    0x0244                  _DCICON3bits = 0x244
                    0x0246                  DCISTAT = 0x246
                    0x0246                  _DCISTAT = 0x246
                    0x0246                  _DCISTATbits = 0x246
                    0x0248                  TSCON = 0x248
                    0x0248                  _TSCON = 0x248
                    0x0248                  _TSCONbits = 0x248
                    0x024c                  RSCON = 0x24c
                    0x024c                  _RSCON = 0x24c
                    0x024c                  _RSCONbits = 0x24c
                    0x0250                  RXBUF0 = 0x250
                    0x0250                  _RXBUF0 = 0x250
                    0x0252                  RXBUF1 = 0x252
                    0x0252                  _RXBUF1 = 0x252
                    0x0254                  RXBUF2 = 0x254
                    0x0254                  _RXBUF2 = 0x254
                    0x0256                  RXBUF3 = 0x256
                    0x0256                  _RXBUF3 = 0x256
                    0x0258                  TXBUF0 = 0x258
                    0x0258                  _TXBUF0 = 0x258
                    0x025a                  TXBUF1 = 0x25a
                    0x025a                  _TXBUF1 = 0x25a
                    0x025c                  TXBUF2 = 0x25c
                    0x025c                  _TXBUF2 = 0x25c
                    0x025e                  TXBUF3 = 0x25e
                    0x025e                  _TXBUF3 = 0x25e
                    0x0280                  ADCBUF0 = 0x280
                    0x0280                  _ADCBUF0 = 0x280
                    0x0282                  ADCBUF1 = 0x282
                    0x0282                  _ADCBUF1 = 0x282
                    0x0284                  ADCBUF2 = 0x284
                    0x0284                  _ADCBUF2 = 0x284
                    0x0286                  ADCBUF3 = 0x286
                    0x0286                  _ADCBUF3 = 0x286
                    0x0288                  ADCBUF4 = 0x288
                    0x0288                  _ADCBUF4 = 0x288
                    0x028a                  ADCBUF5 = 0x28a
                    0x028a                  _ADCBUF5 = 0x28a
                    0x028c                  ADCBUF6 = 0x28c
                    0x028c                  _ADCBUF6 = 0x28c
                    0x028e                  ADCBUF7 = 0x28e
                    0x028e                  _ADCBUF7 = 0x28e
                    0x0290                  ADCBUF8 = 0x290
                    0x0290                  _ADCBUF8 = 0x290
                    0x0292                  ADCBUF9 = 0x292
                    0x0292                  _ADCBUF9 = 0x292
                    0x0294                  ADCBUFA = 0x294
                    0x0294                  _ADCBUFA = 0x294
                    0x0296                  ADCBUFB = 0x296
                    0x0296                  _ADCBUFB = 0x296
                    0x0298                  ADCBUFC = 0x298
                    0x0298                  _ADCBUFC = 0x298
                    0x029a                  ADCBUFD = 0x29a
                    0x029a                  _ADCBUFD = 0x29a
                    0x029c                  ADCBUFE = 0x29c
                    0x029c                  _ADCBUFE = 0x29c
                    0x029e                  ADCBUFF = 0x29e
                    0x029e                  _ADCBUFF = 0x29e
                    0x02a0                  ADCON1 = 0x2a0
                    0x02a0                  _ADCON1 = 0x2a0
                    0x02a0                  _ADCON1bits = 0x2a0
                    0x02a2                  ADCON2 = 0x2a2
                    0x02a2                  _ADCON2 = 0x2a2
                    0x02a2                  _ADCON2bits = 0x2a2
                    0x02a4                  ADCON3 = 0x2a4
                    0x02a4                  _ADCON3 = 0x2a4
                    0x02a4                  _ADCON3bits = 0x2a4
                    0x02a6                  ADCHS = 0x2a6
                    0x02a6                  _ADCHS = 0x2a6
                    0x02a6                  _ADCHSbits = 0x2a6
                    0x02a8                  ADPCFG = 0x2a8
                    0x02a8                  _ADPCFG = 0x2a8
                    0x02a8                  _ADPCFGbits = 0x2a8
                    0x02aa                  ADCSSL = 0x2aa
                    0x02aa                  _ADCSSL = 0x2aa
                    0x02aa                  _ADCSSLbits = 0x2aa
                    0x02c0                  TRISA = 0x2c0
                    0x02c0                  _TRISA = 0x2c0
                    0x02c0                  _TRISAbits = 0x2c0
                    0x02c2                  PORTA = 0x2c2
                    0x02c2                  _PORTA = 0x2c2
                    0x02c2                  _PORTAbits = 0x2c2
                    0x02c4                  LATA = 0x2c4
                    0x02c4                  _LATA = 0x2c4
                    0x02c4                  _LATAbits = 0x2c4
                    0x02c6                  TRISB = 0x2c6
                    0x02c6                  _TRISB = 0x2c6
                    0x02c6                  _TRISBbits = 0x2c6
                    0x02c8                  PORTB = 0x2c8
                    0x02c8                  _PORTB = 0x2c8
                    0x02c8                  _PORTBbits = 0x2c8
                    0x02ca                  LATB = 0x2ca
                    0x02ca                  _LATB = 0x2ca
                    0x02ca                  _LATBbits = 0x2ca
                    0x02cc                  TRISC = 0x2cc
                    0x02cc                  _TRISC = 0x2cc
                    0x02cc                  _TRISCbits = 0x2cc
                    0x02ce                  PORTC = 0x2ce
                    0x02ce                  _PORTC = 0x2ce
                    0x02ce                  _PORTCbits = 0x2ce
                    0x02d0                  LATC = 0x2d0
                    0x02d0                  _LATC = 0x2d0
                    0x02d0                  _LATCbits = 0x2d0
                    0x02d2                  TRISD = 0x2d2
                    0x02d2                  _TRISD = 0x2d2
                    0x02d2                  _TRISDbits = 0x2d2
                    0x02d4                  PORTD = 0x2d4
                    0x02d4                  _PORTD = 0x2d4
                    0x02d4                  _PORTDbits = 0x2d4
                    0x02d6                  LATD = 0x2d6
                    0x02d6                  _LATD = 0x2d6
                    0x02d6                  _LATDbits = 0x2d6
                    0x02de                  TRISF = 0x2de
                    0x02de                  _TRISF = 0x2de
                    0x02de                  _TRISFbits = 0x2de
                    0x02e0                  PORTF = 0x2e0
                    0x02e0                  _PORTF = 0x2e0
                    0x02e0                  _PORTFbits = 0x2e0
                    0x02e2                  LATF = 0x2e2
                    0x02e2                  _LATF = 0x2e2
                    0x02e2                  _LATFbits = 0x2e2
                    0x02e4                  TRISG = 0x2e4
                    0x02e4                  _TRISG = 0x2e4
                    0x02e4                  _TRISGbits = 0x2e4
                    0x02e6                  PORTG = 0x2e6
                    0x02e6                  _PORTG = 0x2e6
                    0x02e6                  _PORTGbits = 0x2e6
                    0x02e8                  LATG = 0x2e8
                    0x02e8                  _LATG = 0x2e8
                    0x02e8                  _LATGbits = 0x2e8
                    0x0300                  C1RXF0SID = 0x300
                    0x0300                  _C1RXF0SID = 0x300
                    0x0300                  _C1RXF0SIDbits = 0x300
                    0x0302                  C1RXF0EIDH = 0x302
                    0x0302                  _C1RXF0EIDH = 0x302
                    0x0302                  _C1RXF0EIDHbits = 0x302
                    0x0304                  C1RXF0EIDL = 0x304
                    0x0304                  _C1RXF0EIDL = 0x304
                    0x0304                  _C1RXF0EIDLbits = 0x304
                    0x0308                  C1RXF1SID = 0x308
                    0x0308                  _C1RXF1SID = 0x308
                    0x0308                  _C1RXF1SIDbits = 0x308
                    0x030a                  C1RXF1EIDH = 0x30a
                    0x030a                  _C1RXF1EIDH = 0x30a
                    0x030a                  _C1RXF1EIDHbits = 0x30a
                    0x030c                  C1RXF1EIDL = 0x30c
                    0x030c                  _C1RXF1EIDL = 0x30c
                    0x030c                  _C1RXF1EIDLbits = 0x30c
                    0x0310                  C1RXF2SID = 0x310
                    0x0310                  _C1RXF2SID = 0x310
                    0x0310                  _C1RXF2SIDbits = 0x310
                    0x0312                  C1RXF2EIDH = 0x312
                    0x0312                  _C1RXF2EIDH = 0x312
                    0x0312                  _C1RXF2EIDHbits = 0x312
                    0x0314                  C1RXF2EIDL = 0x314
                    0x0314                  _C1RXF2EIDL = 0x314
                    0x0314                  _C1RXF2EIDLbits = 0x314
                    0x0318                  C1RXF3SID = 0x318
                    0x0318                  _C1RXF3SID = 0x318
                    0x0318                  _C1RXF3SIDbits = 0x318
                    0x031a                  C1RXF3EIDH = 0x31a
                    0x031a                  _C1RXF3EIDH = 0x31a
                    0x031a                  _C1RXF3EIDHbits = 0x31a
                    0x031c                  C1RXF3EIDL = 0x31c
                    0x031c                  _C1RXF3EIDL = 0x31c
                    0x031c                  _C1RXF3EIDLbits = 0x31c
                    0x0320                  C1RXF4SID = 0x320
                    0x0320                  _C1RXF4SID = 0x320
                    0x0320                  _C1RXF4SIDbits = 0x320
                    0x0322                  C1RXF4EIDH = 0x322
                    0x0322                  _C1RXF4EIDH = 0x322
                    0x0322                  _C1RXF4EIDHbits = 0x322
                    0x0324                  C1RXF4EIDL = 0x324
                    0x0324                  _C1RXF4EIDL = 0x324
                    0x0324                  _C1RXF4EIDLbits = 0x324
                    0x0328                  C1RXF5SID = 0x328
                    0x0328                  _C1RXF5SID = 0x328
                    0x0328                  _C1RXF5SIDbits = 0x328
                    0x032a                  C1RXF5EIDH = 0x32a
                    0x032a                  _C1RXF5EIDH = 0x32a
                    0x032a                  _C1RXF5EIDHbits = 0x32a
                    0x032c                  C1RXF5EIDL = 0x32c
                    0x032c                  _C1RXF5EIDL = 0x32c
                    0x032c                  _C1RXF5EIDLbits = 0x32c
                    0x0330                  C1RXM0SID = 0x330
                    0x0330                  _C1RXM0SID = 0x330
                    0x0330                  _C1RXM0SIDbits = 0x330
                    0x0332                  C1RXM0EIDH = 0x332
                    0x0332                  _C1RXM0EIDH = 0x332
                    0x0332                  _C1RXM0EIDHbits = 0x332
                    0x0334                  C1RXM0EIDL = 0x334
                    0x0334                  _C1RXM0EIDL = 0x334
                    0x0334                  _C1RXM0EIDLbits = 0x334
                    0x0338                  C1RXM1SID = 0x338
                    0x0338                  _C1RXM1SID = 0x338
                    0x0338                  _C1RXM1SIDbits = 0x338
                    0x033a                  C1RXM1EIDH = 0x33a
                    0x033a                  _C1RXM1EIDH = 0x33a
                    0x033a                  _C1RXM1EIDHbits = 0x33a
                    0x033c                  C1RXM1EIDL = 0x33c
                    0x033c                  _C1RXM1EIDL = 0x33c
                    0x033c                  _C1RXM1EIDLbits = 0x33c
                    0x0340                  C1TX2SID = 0x340
                    0x0340                  _C1TX2SID = 0x340
                    0x0340                  _C1TX2SIDbits = 0x340
                    0x0342                  C1TX2EID = 0x342
                    0x0342                  _C1TX2EID = 0x342
                    0x0342                  _C1TX2EIDbits = 0x342
                    0x0344                  C1TX2DLC = 0x344
                    0x0344                  _C1TX2DLC = 0x344
                    0x0344                  _C1TX2DLCbits = 0x344
                    0x0346                  C1TX2B1 = 0x346
                    0x0346                  _C1TX2B1 = 0x346
                    0x0346                  _C1TX2B1bits = 0x346
                    0x0348                  C1TX2B2 = 0x348
                    0x0348                  _C1TX2B2 = 0x348
                    0x0348                  _C1TX2B2bits = 0x348
                    0x034a                  C1TX2B3 = 0x34a
                    0x034a                  _C1TX2B3 = 0x34a
                    0x034a                  _C1TX2B3bits = 0x34a
                    0x034c                  C1TX2B4 = 0x34c
                    0x034c                  _C1TX2B4 = 0x34c
                    0x034c                  _C1TX2B4bits = 0x34c
                    0x034e                  C1TX2CON = 0x34e
                    0x034e                  _C1TX2CON = 0x34e
                    0x034e                  _C1TX2CONbits = 0x34e
                    0x0350                  C1TX1SID = 0x350
                    0x0350                  _C1TX1SID = 0x350
                    0x0350                  _C1TX1SIDbits = 0x350
                    0x0352                  C1TX1EID = 0x352
                    0x0352                  _C1TX1EID = 0x352
                    0x0352                  _C1TX1EIDbits = 0x352
                    0x0354                  C1TX1DLC = 0x354
                    0x0354                  _C1TX1DLC = 0x354
                    0x0354                  _C1TX1DLCbits = 0x354
                    0x0356                  C1TX1B1 = 0x356
                    0x0356                  _C1TX1B1 = 0x356
                    0x0356                  _C1TX1B1bits = 0x356
                    0x0358                  C1TX1B2 = 0x358
                    0x0358                  _C1TX1B2 = 0x358
                    0x0358                  _C1TX1B2bits = 0x358
                    0x035a                  C1TX1B3 = 0x35a
                    0x035a                  _C1TX1B3 = 0x35a
                    0x035a                  _C1TX1B3bits = 0x35a
                    0x035c                  C1TX1B4 = 0x35c
                    0x035c                  _C1TX1B4 = 0x35c
                    0x035c                  _C1TX1B4bits = 0x35c
                    0x035e                  C1TX1CON = 0x35e
                    0x035e                  _C1TX1CON = 0x35e
                    0x035e                  _C1TX1CONbits = 0x35e
                    0x0360                  C1TX0SID = 0x360
                    0x0360                  _C1TX0SID = 0x360
                    0x0360                  _C1TX0SIDbits = 0x360
                    0x0362                  C1TX0EID = 0x362
                    0x0362                  _C1TX0EID = 0x362
                    0x0362                  _C1TX0EIDbits = 0x362
                    0x0364                  C1TX0DLC = 0x364
                    0x0364                  _C1TX0DLC = 0x364
                    0x0364                  _C1TX0DLCbits = 0x364
                    0x0366                  C1TX0B1 = 0x366
                    0x0366                  _C1TX0B1 = 0x366
                    0x0366                  _C1TX0B1bits = 0x366
                    0x0368                  C1TX0B2 = 0x368
                    0x0368                  _C1TX0B2 = 0x368
                    0x0368                  _C1TX0B2bits = 0x368
                    0x036a                  C1TX0B3 = 0x36a
                    0x036a                  _C1TX0B3 = 0x36a
                    0x036a                  _C1TX0B3bits = 0x36a
                    0x036c                  C1TX0B4 = 0x36c
                    0x036c                  _C1TX0B4 = 0x36c
                    0x036c                  _C1TX0B4bits = 0x36c
                    0x036e                  C1TX0CON = 0x36e
                    0x036e                  _C1TX0CON = 0x36e
                    0x036e                  _C1TX0CONbits = 0x36e
                    0x0370                  C1RX1SID = 0x370
                    0x0370                  _C1RX1SID = 0x370
                    0x0370                  _C1RX1SIDbits = 0x370
                    0x0372                  C1RX1EID = 0x372
                    0x0372                  _C1RX1EID = 0x372
                    0x0372                  _C1RX1EIDbits = 0x372
                    0x0374                  C1RX1DLC = 0x374
                    0x0374                  _C1RX1DLC = 0x374
                    0x0374                  _C1RX1DLCbits = 0x374
                    0x0376                  C1RX1B1 = 0x376
                    0x0376                  _C1RX1B1 = 0x376
                    0x0376                  _C1RX1B1bits = 0x376
                    0x0378                  C1RX1B2 = 0x378
                    0x0378                  _C1RX1B2 = 0x378
                    0x0378                  _C1RX1B2bits = 0x378
                    0x037a                  C1RX1B3 = 0x37a
                    0x037a                  _C1RX1B3 = 0x37a
                    0x037a                  _C1RX1B3bits = 0x37a
                    0x037c                  C1RX1B4 = 0x37c
                    0x037c                  _C1RX1B4 = 0x37c
                    0x037c                  _C1RX1B4bits = 0x37c
                    0x037e                  C1RX1CON = 0x37e
                    0x037e                  _C1RX1CON = 0x37e
                    0x037e                  _C1RX1CONbits = 0x37e
                    0x0380                  C1RX0SID = 0x380
                    0x0380                  _C1RX0SID = 0x380
                    0x0380                  _C1RX0SIDbits = 0x380
                    0x0382                  C1RX0EID = 0x382
                    0x0382                  _C1RX0EID = 0x382
                    0x0382                  _C1RX0EIDbits = 0x382
                    0x0384                  C1RX0DLC = 0x384
                    0x0384                  _C1RX0DLC = 0x384
                    0x0384                  _C1RX0DLCbits = 0x384
                    0x0386                  C1RX0B1 = 0x386
                    0x0386                  _C1RX0B1 = 0x386
                    0x0386                  _C1RX0B1bits = 0x386
                    0x0388                  C1RX0B2 = 0x388
                    0x0388                  _C1RX0B2 = 0x388
                    0x0388                  _C1RX0B2bits = 0x388
                    0x038a                  C1RX0B3 = 0x38a
                    0x038a                  _C1RX0B3 = 0x38a
                    0x038a                  _C1RX0B3bits = 0x38a
                    0x038c                  C1RX0B4 = 0x38c
                    0x038c                  _C1RX0B4 = 0x38c
                    0x038c                  _C1RX0B4bits = 0x38c
                    0x038e                  C1RX0CON = 0x38e
                    0x038e                  _C1RX0CON = 0x38e
                    0x038e                  _C1RX0CONbits = 0x38e
                    0x0390                  C1CTRL = 0x390
                    0x0390                  _C1CTRL = 0x390
                    0x0390                  _C1CTRLbits = 0x390
                    0x0392                  C1CFG1 = 0x392
                    0x0392                  _C1CFG1 = 0x392
                    0x0392                  _C1CFG1bits = 0x392
                    0x0394                  C1CFG2 = 0x394
                    0x0394                  _C1CFG2 = 0x394
                    0x0394                  _C1CFG2bits = 0x394
                    0x0396                  C1INTF = 0x396
                    0x0396                  _C1INTF = 0x396
                    0x0396                  _C1INTFbits = 0x396
                    0x0398                  C1INTE = 0x398
                    0x0398                  _C1INTE = 0x398
                    0x0398                  _C1INTEbits = 0x398
                    0x039a                  C1EC = 0x39a
                    0x039a                  _C1EC = 0x39a
                    0x039a                  _C1ECbits = 0x39a
                    0x039a                  C1RERRCNT = 0x39a
                    0x039a                  _C1RERRCNT = 0x39a
                    0x039b                  C1TERRCNT = 0x39b
                    0x039b                  _C1TERRCNT = 0x39b
                    0x03c0                  C2RXF0SID = 0x3c0
                    0x03c0                  _C2RXF0SID = 0x3c0
                    0x03c0                  _C2RXF0SIDbits = 0x3c0
                    0x03c2                  C2RXF0EIDH = 0x3c2
                    0x03c2                  _C2RXF0EIDH = 0x3c2
                    0x03c2                  _C2RXF0EIDHbits = 0x3c2
                    0x03c4                  C2RXF0EIDL = 0x3c4
                    0x03c4                  _C2RXF0EIDL = 0x3c4
                    0x03c4                  _C2RXF0EIDLbits = 0x3c4
                    0x03c8                  C2RXF1SID = 0x3c8
                    0x03c8                  _C2RXF1SID = 0x3c8
                    0x03c8                  _C2RXF1SIDbits = 0x3c8
                    0x03ca                  C2RXF1EIDH = 0x3ca
                    0x03ca                  _C2RXF1EIDH = 0x3ca
                    0x03ca                  _C2RXF1EIDHbits = 0x3ca
                    0x03cc                  C2RXF1EIDL = 0x3cc
                    0x03cc                  _C2RXF1EIDL = 0x3cc
                    0x03cc                  _C2RXF1EIDLbits = 0x3cc
                    0x03d0                  C2RXF2SID = 0x3d0
                    0x03d0                  _C2RXF2SID = 0x3d0
                    0x03d0                  _C2RXF2SIDbits = 0x3d0
                    0x03d2                  C2RXF2EIDH = 0x3d2
                    0x03d2                  _C2RXF2EIDH = 0x3d2
                    0x03d2                  _C2RXF2EIDHbits = 0x3d2
                    0x03d4                  C2RXF2EIDL = 0x3d4
                    0x03d4                  _C2RXF2EIDL = 0x3d4
                    0x03d4                  _C2RXF2EIDLbits = 0x3d4
                    0x03d8                  C2RXF3SID = 0x3d8
                    0x03d8                  _C2RXF3SID = 0x3d8
                    0x03d8                  _C2RXF3SIDbits = 0x3d8
                    0x03da                  C2RXF3EIDH = 0x3da
                    0x03da                  _C2RXF3EIDH = 0x3da
                    0x03da                  _C2RXF3EIDHbits = 0x3da
                    0x03dc                  C2RXF3EIDL = 0x3dc
                    0x03dc                  _C2RXF3EIDL = 0x3dc
                    0x03dc                  _C2RXF3EIDLbits = 0x3dc
                    0x03e0                  C2RXF4SID = 0x3e0
                    0x03e0                  _C2RXF4SID = 0x3e0
                    0x03e0                  _C2RXF4SIDbits = 0x3e0
                    0x03e2                  C2RXF4EIDH = 0x3e2
                    0x03e2                  _C2RXF4EIDH = 0x3e2
                    0x03e2                  _C2RXF4EIDHbits = 0x3e2
                    0x03e4                  C2RXF4EIDL = 0x3e4
                    0x03e4                  _C2RXF4EIDL = 0x3e4
                    0x03e4                  _C2RXF4EIDLbits = 0x3e4
                    0x03e8                  C2RXF5SID = 0x3e8
                    0x03e8                  _C2RXF5SID = 0x3e8
                    0x03e8                  _C2RXF5SIDbits = 0x3e8
                    0x03ea                  C2RXF5EIDH = 0x3ea
                    0x03ea                  _C2RXF5EIDH = 0x3ea
                    0x03ea                  _C2RXF5EIDHbits = 0x3ea
                    0x03ec                  C2RXF5EIDL = 0x3ec
                    0x03ec                  _C2RXF5EIDL = 0x3ec
                    0x03ec                  _C2RXF5EIDLbits = 0x3ec
                    0x03f0                  C2RXM0SID = 0x3f0
                    0x03f0                  _C2RXM0SID = 0x3f0
                    0x03f0                  _C2RXM0SIDbits = 0x3f0
                    0x03f2                  C2RXM0EIDH = 0x3f2
                    0x03f2                  _C2RXM0EIDH = 0x3f2
                    0x03f2                  _C2RXM0EIDHbits = 0x3f2
                    0x03f4                  C2RXM0EIDL = 0x3f4
                    0x03f4                  _C2RXM0EIDL = 0x3f4
                    0x03f4                  _C2RXM0EIDLbits = 0x3f4
                    0x03f8                  C2RXM1SID = 0x3f8
                    0x03f8                  _C2RXM1SID = 0x3f8
                    0x03f8                  _C2RXM1SIDbits = 0x3f8
                    0x03fa                  C2RXM1EIDH = 0x3fa
                    0x03fa                  _C2RXM1EIDH = 0x3fa
                    0x03fa                  _C2RXM1EIDHbits = 0x3fa
                    0x03fc                  C2RXM1EIDL = 0x3fc
                    0x03fc                  _C2RXM1EIDL = 0x3fc
                    0x03fc                  _C2RXM1EIDLbits = 0x3fc
                    0x0400                  C2TX2SID = 0x400
                    0x0400                  _C2TX2SID = 0x400
                    0x0400                  _C2TX2SIDbits = 0x400
                    0x0402                  C2TX2EID = 0x402
                    0x0402                  _C2TX2EID = 0x402
                    0x0402                  _C2TX2EIDbits = 0x402
                    0x0404                  C2TX2DLC = 0x404
                    0x0404                  _C2TX2DLC = 0x404
                    0x0404                  _C2TX2DLCbits = 0x404
                    0x0406                  C2TX2B1 = 0x406
                    0x0406                  _C2TX2B1 = 0x406
                    0x0406                  _C2TX2B1bits = 0x406
                    0x0408                  C2TX2B2 = 0x408
                    0x0408                  _C2TX2B2 = 0x408
                    0x0408                  _C2TX2B2bits = 0x408
                    0x040a                  C2TX2B3 = 0x40a
                    0x040a                  _C2TX2B3 = 0x40a
                    0x040a                  _C2TX2B3bits = 0x40a
                    0x040c                  C2TX2B4 = 0x40c
                    0x040c                  _C2TX2B4 = 0x40c
                    0x040c                  _C2TX2B4bits = 0x40c
                    0x040e                  C2TX2CON = 0x40e
                    0x040e                  _C2TX2CON = 0x40e
                    0x040e                  _C2TX2CONbits = 0x40e
                    0x0410                  C2TX1SID = 0x410
                    0x0410                  _C2TX1SID = 0x410
                    0x0410                  _C2TX1SIDbits = 0x410
                    0x0412                  C2TX1EID = 0x412
                    0x0412                  _C2TX1EID = 0x412
                    0x0412                  _C2TX1EIDbits = 0x412
                    0x0414                  C2TX1DLC = 0x414
                    0x0414                  _C2TX1DLC = 0x414
                    0x0414                  _C2TX1DLCbits = 0x414
                    0x0416                  C2TX1B1 = 0x416
                    0x0416                  _C2TX1B1 = 0x416
                    0x0416                  _C2TX1B1bits = 0x416
                    0x0418                  C2TX1B2 = 0x418
                    0x0418                  _C2TX1B2 = 0x418
                    0x0418                  _C2TX1B2bits = 0x418
                    0x041a                  C2TX1B3 = 0x41a
                    0x041a                  _C2TX1B3 = 0x41a
                    0x041a                  _C2TX1B3bits = 0x41a
                    0x041c                  C2TX1B4 = 0x41c
                    0x041c                  _C2TX1B4 = 0x41c
                    0x041c                  _C2TX1B4bits = 0x41c
                    0x041e                  C2TX1CON = 0x41e
                    0x041e                  _C2TX1CON = 0x41e
                    0x041e                  _C2TX1CONbits = 0x41e
                    0x0420                  C2TX0SID = 0x420
                    0x0420                  _C2TX0SID = 0x420
                    0x0420                  _C2TX0SIDbits = 0x420
                    0x0422                  C2TX0EID = 0x422
                    0x0422                  _C2TX0EID = 0x422
                    0x0422                  _C2TX0EIDbits = 0x422
                    0x0424                  C2TX0DLC = 0x424
                    0x0424                  _C2TX0DLC = 0x424
                    0x0424                  _C2TX0DLCbits = 0x424
                    0x0426                  C2TX0B1 = 0x426
                    0x0426                  _C2TX0B1 = 0x426
                    0x0426                  _C2TX0B1bits = 0x426
                    0x0428                  C2TX0B2 = 0x428
                    0x0428                  _C2TX0B2 = 0x428
                    0x0428                  _C2TX0B2bits = 0x428
                    0x042a                  C2TX0B3 = 0x42a
                    0x042a                  _C2TX0B3 = 0x42a
                    0x042a                  _C2TX0B3bits = 0x42a
                    0x042c                  C2TX0B4 = 0x42c
                    0x042c                  _C2TX0B4 = 0x42c
                    0x042c                  _C2TX0B4bits = 0x42c
                    0x042e                  C2TX0CON = 0x42e
                    0x042e                  _C2TX0CON = 0x42e
                    0x042e                  _C2TX0CONbits = 0x42e
                    0x0430                  C2RX1SID = 0x430
                    0x0430                  _C2RX1SID = 0x430
                    0x0430                  _C2RX1SIDbits = 0x430
                    0x0432                  C2RX1EID = 0x432
                    0x0432                  _C2RX1EID = 0x432
                    0x0432                  _C2RX1EIDbits = 0x432
                    0x0434                  C2RX1DLC = 0x434
                    0x0434                  _C2RX1DLC = 0x434
                    0x0434                  _C2RX1DLCbits = 0x434
                    0x0436                  C2RX1B1 = 0x436
                    0x0436                  _C2RX1B1 = 0x436
                    0x0436                  _C2RX1B1bits = 0x436
                    0x0438                  C2RX1B2 = 0x438
                    0x0438                  _C2RX1B2 = 0x438
                    0x0438                  _C2RX1B2bits = 0x438
                    0x043a                  C2RX1B3 = 0x43a
                    0x043a                  _C2RX1B3 = 0x43a
                    0x043a                  _C2RX1B3bits = 0x43a
                    0x043c                  C2RX1B4 = 0x43c
                    0x043c                  _C2RX1B4 = 0x43c
                    0x043c                  _C2RX1B4bits = 0x43c
                    0x043e                  C2RX1CON = 0x43e
                    0x043e                  _C2RX1CON = 0x43e
                    0x043e                  _C2RX1CONbits = 0x43e
                    0x0440                  C2RX0SID = 0x440
                    0x0440                  _C2RX0SID = 0x440
                    0x0440                  _C2RX0SIDbits = 0x440
                    0x0442                  C2RX0EID = 0x442
                    0x0442                  _C2RX0EID = 0x442
                    0x0442                  _C2RX0EIDbits = 0x442
                    0x0444                  C2RX0DLC = 0x444
                    0x0444                  _C2RX0DLC = 0x444
                    0x0444                  _C2RX0DLCbits = 0x444
                    0x0446                  C2RX0B1 = 0x446
                    0x0446                  _C2RX0B1 = 0x446
                    0x0446                  _C2RX0B1bits = 0x446
                    0x0448                  C2RX0B2 = 0x448
                    0x0448                  _C2RX0B2 = 0x448
                    0x0448                  _C2RX0B2bits = 0x448
                    0x044a                  C2RX0B3 = 0x44a
                    0x044a                  _C2RX0B3 = 0x44a
                    0x044a                  _C2RX0B3bits = 0x44a
                    0x044c                  C2RX0B4 = 0x44c
                    0x044c                  _C2RX0B4 = 0x44c
                    0x044c                  _C2RX0B4bits = 0x44c
                    0x044e                  C2RX0CON = 0x44e
                    0x044e                  _C2RX0CON = 0x44e
                    0x044e                  _C2RX0CONbits = 0x44e
                    0x0450                  C2CTRL = 0x450
                    0x0450                  _C2CTRL = 0x450
                    0x0450                  _C2CTRLbits = 0x450
                    0x0452                  C2CFG1 = 0x452
                    0x0452                  _C2CFG1 = 0x452
                    0x0452                  _C2CFG1bits = 0x452
                    0x0454                  C2CFG2 = 0x454
                    0x0454                  _C2CFG2 = 0x454
                    0x0454                  _C2CFG2bits = 0x454
                    0x0456                  C2INTF = 0x456
                    0x0456                  _C2INTF = 0x456
                    0x0456                  _C2INTFbits = 0x456
                    0x0458                  C2INTE = 0x458
                    0x0458                  _C2INTE = 0x458
                    0x0458                  _C2INTEbits = 0x458
                    0x045a                  C2EC = 0x45a
                    0x045a                  _C2EC = 0x45a
                    0x045a                  _C2ECbits = 0x45a
                    0x045a                  C2RERRCNT = 0x45a
                    0x045a                  _C2RERRCNT = 0x45a
                    0x045b                  C2TERRCNT = 0x45b
                    0x045b                  _C2TERRCNT = 0x45b
                    0x0740                  RCON = 0x740
                    0x0740                  _RCON = 0x740
                    0x0740                  _RCONbits = 0x740
                    0x0742                  OSCCON = 0x742
                    0x0742                  _OSCCON = 0x742
                    0x0742                  _OSCCONbits = 0x742
                    0x0742                  OSCCONL = 0x742
                    0x0742                  _OSCCONL = 0x742
                    0x0743                  OSCCONH = 0x743
                    0x0743                  _OSCCONH = 0x743
                    0x0744                  OSCTUN = 0x744
                    0x0744                  _OSCTUN = 0x744
                    0x0744                  _OSCTUNbits = 0x744
                    0x0750                  BSRAM = 0x750
                    0x0750                  _BSRAM = 0x750
                    0x0750                  _BSRAMbits = 0x750
                    0x0752                  SSRAM = 0x752
                    0x0752                  _SSRAM = 0x752
                    0x0752                  _SSRAMbits = 0x752
                    0x0760                  NVMCON = 0x760
                    0x0760                  _NVMCON = 0x760
                    0x0760                  _NVMCONbits = 0x760
                    0x0762                  NVMADR = 0x762
                    0x0762                  _NVMADR = 0x762
                    0x0764                  NVMADRU = 0x764
                    0x0764                  _NVMADRU = 0x764
                    0x0764                  _NVMADRUbits = 0x764
                    0x0766                  NVMKEY = 0x766
                    0x0766                  _NVMKEY = 0x766
                    0x0770                  PMD1 = 0x770
                    0x0770                  _PMD1 = 0x770
                    0x0770                  _PMD1bits = 0x770
                    0x0772                  PMD2 = 0x772
                    0x0772                  _PMD2 = 0x772
                    0x0772                  _PMD2bits = 0x772
                    0x0022                  ACCA = 0x22
                    0x0022                  _ACCA = 0x22
                    0x0028                  ACCB = 0x28
                    0x0028                  _ACCB = 0x28
                    0x0300                  CAN1 = 0x300
                    0x0300                  _CAN1 = 0x300
                    0x03c0                  CAN2 = 0x3c0
                    0x03c0                  _CAN2 = 0x3c0
                    0x0140                  IC1 = 0x140
                    0x0140                  _IC1 = 0x140
                    0x0144                  IC2 = 0x144
                    0x0144                  _IC2 = 0x144
                    0x0148                  IC3 = 0x148
                    0x0148                  _IC3 = 0x148
                    0x014c                  IC4 = 0x14c
                    0x014c                  _IC4 = 0x14c
                    0x0150                  IC5 = 0x150
                    0x0150                  _IC5 = 0x150
                    0x0154                  IC6 = 0x154
                    0x0154                  _IC6 = 0x154
                    0x0158                  IC7 = 0x158
                    0x0158                  _IC7 = 0x158
                    0x015c                  IC8 = 0x15c
                    0x015c                  _IC8 = 0x15c
                    0x0180                  OC1 = 0x180
                    0x0180                  _OC1 = 0x180
                    0x0186                  OC2 = 0x186
                    0x0186                  _OC2 = 0x186
                    0x018c                  OC3 = 0x18c
                    0x018c                  _OC3 = 0x18c
                    0x0192                  OC4 = 0x192
                    0x0192                  _OC4 = 0x192
                    0x0198                  OC5 = 0x198
                    0x0198                  _OC5 = 0x198
                    0x019e                  OC6 = 0x19e
                    0x019e                  _OC6 = 0x19e
                    0x01a4                  OC7 = 0x1a4
                    0x01a4                  _OC7 = 0x1a4
                    0x01aa                  OC8 = 0x1aa
                    0x01aa                  _OC8 = 0x1aa
                    0x0220                  SPI1 = 0x220
                    0x0220                  _SPI1 = 0x220
                    0x0226                  SPI2 = 0x226
                    0x0226                  _SPI2 = 0x226
                    0x020c                  UART1 = 0x20c
                    0x020c                  _UART1 = 0x20c
                    0x0216                  UART2 = 0x216
                    0x0216                  _UART2 = 0x216
START GROUP
LOAD c:/program files (x86)/microchip/mplab c30/bin/bin/../../lib\libpic30-elf.a
LOAD c:/program files (x86)/microchip/mplab c30/bin/bin/../../lib\libm-elf.a
LOAD c:/program files (x86)/microchip/mplab c30/bin/bin/../../lib\libc-elf.a
END GROUP
OUTPUT(dist/default/production/demoGCtronic.X.production.elf elf32-pic30)
LOAD FGS
LOAD jump_table
LOAD default_isr
LOAD heap
LOAD data_init

__c30_signature
                  0x0005d8        0x282
 __c30_signature
                  0x0005d8          0x6 build/default/production/_ext/1472/utility.o
 __c30_signature
                  0x0005de          0x6 build/default/production/_ext/1472/Asercom.o
 __c30_signature
                  0x0005e4          0x6 build/default/production/_ext/1472/main_c.o
 __c30_signature
                  0x0005ea          0x6 build/default/production/_ext/1472/runaccelerometer.o
 __c30_signature
                  0x0005f0          0x6 build/default/production/_ext/1472/runbreitenberg_adv.o
 __c30_signature
                  0x0005f6          0x6 build/default/production/_ext/1472/rungrounddirection.o
 __c30_signature
                  0x0005fc          0x6 build/default/production/_ext/1472/runlocatesound.o
 __c30_signature
                  0x000602          0x6 build/default/production/_ext/1472/runshow.o
 __c30_signature
                  0x000608          0x6 build/default/production/_ext/1472/runwallfollow.o
 __c30_signature
                  0x00060e          0x6 build/default/production/_ext/1472/translatorI2C.o
 __c30_signature
                  0x000614          0x6 build/default/production/_ext/487958404/e_acc.o
 __c30_signature
                  0x00061a          0x6 build/default/production/_ext/487958404/e_ad_conv.o
 __c30_signature
                  0x000620          0x6 build/default/production/_ext/663421589/e_bluetooth.o
 __c30_signature
                  0x000626          0x6 build/default/production/_ext/930121020/e_common.o
 __c30_signature
                  0x00062c          0x6 build/default/production/_ext/930121020/e_po6030k_registers.o
 __c30_signature
                  0x000632          0x6 build/default/production/_ext/2015481517/e_sound.o
 __c30_signature
                  0x000638          0x6 build/default/production/_ext/417766185/e_I2C_master_module.o
 __c30_signature
                  0x00063e          0x6 build/default/production/_ext/417766185/e_I2C_protocol.o
 __c30_signature
                  0x000644          0x6 build/default/production/_ext/1259340286/e_init_port.o
 __c30_signature
                  0x00064a          0x6 build/default/production/_ext/1949949662/e_agenda.o
 __c30_signature
                  0x000650          0x6 build/default/production/_ext/1949949662/e_remote_control.o
 __c30_signature
                  0x000656          0x6 build/default/production/_ext/1514613776/e_calc_po3030k.o
 __c30_signature
                  0x00065c          0x6 build/default/production/_ext/1514613776/e_calc_po6030k.o
 __c30_signature
                  0x000662          0x6 build/default/production/_ext/879901074/e_led.o
 __c30_signature
                  0x000668          0x6 build/default/production/_ext/487958404/e_micro.o
 __c30_signature
                  0x00066e          0x6 build/default/production/_ext/879901074/e_motors.o
 __c30_signature
                  0x000674          0x6 build/default/production/_ext/1514613776/e_po3030k_registers.o
 __c30_signature
                  0x00067a          0x6 build/default/production/_ext/487958404/e_prox.o
 __c30_signature
                  0x000680          0x6 build/default/production/_ext/1514613776/e_timers.o
 __c30_signature
                  0x000686          0x6 c:/program files (x86)/microchip/mplab c30/bin/bin/../../lib\libpic30-elf.a(crt0_standard.o)
 __c30_signature
                  0x00068c          0x6 c:/program files (x86)/microchip/mplab c30/bin/bin/../../lib\libpic30-elf.a(data_init_standard.o)
 __c30_signature
                  0x000692          0x6 c:/program files (x86)/microchip/mplab c30/bin/bin/../../lib\libm-elf.a(addsf3.eo)
 __c30_signature
                  0x000698          0x6 c:/program files (x86)/microchip/mplab c30/bin/bin/../../lib\libm-elf.a(asinf.eo)
 __c30_signature
                  0x00069e          0x6 c:/program files (x86)/microchip/mplab c30/bin/bin/../../lib\libm-elf.a(atan2f.eo)
 __c30_signature
                  0x0006a4          0x6 c:/program files (x86)/microchip/mplab c30/bin/bin/../../lib\libm-elf.a(atanf.eo)
 __c30_signature
                  0x0006aa          0x6 c:/program files (x86)/microchip/mplab c30/bin/bin/../../lib\libm-elf.a(divsf3.eo)
 __c30_signature
                  0x0006b0          0x6 c:/program files (x86)/microchip/mplab c30/bin/bin/../../lib\libm-elf.a(divsi3.eo)
 __c30_signature
                  0x0006b6          0x6 c:/program files (x86)/microchip/mplab c30/bin/bin/../../lib\libm-elf.a(errno.eo)
 __c30_signature
                  0x0006bc          0x6 c:/program files (x86)/microchip/mplab c30/bin/bin/../../lib\libm-elf.a(feqltle.eo)
 __c30_signature
                  0x0006c2          0x6 c:/program files (x86)/microchip/mplab c30/bin/bin/../../lib\libm-elf.a(fgtge.eo)
 __c30_signature
                  0x0006c8          0x6 c:/program files (x86)/microchip/mplab c30/bin/bin/../../lib\libm-elf.a(fixsfsi.eo)
 __c30_signature
                  0x0006ce          0x6 c:/program files (x86)/microchip/mplab c30/bin/bin/../../lib\libm-elf.a(floatsisf.eo)
 __c30_signature
                  0x0006d4          0x6 c:/program files (x86)/microchip/mplab c30/bin/bin/../../lib\libm-elf.a(floorf.eo)
 __c30_signature
                  0x0006da          0x6 c:/program files (x86)/microchip/mplab c30/bin/bin/../../lib\libm-elf.a(fne.eo)
 __c30_signature
                  0x0006e0          0x6 c:/program files (x86)/microchip/mplab c30/bin/bin/../../lib\libm-elf.a(fpack.eo)
 __c30_signature
                  0x0006e6          0x6 c:/program files (x86)/microchip/mplab c30/bin/bin/../../lib\libm-elf.a(funpack.eo)
 __c30_signature
                  0x0006ec          0x6 c:/program files (x86)/microchip/mplab c30/bin/bin/../../lib\libm-elf.a(funpack2.eo)
 __c30_signature
                  0x0006f2          0x6 c:/program files (x86)/microchip/mplab c30/bin/bin/../../lib\libm-elf.a(futil.eo)
 __c30_signature
                  0x0006f8          0x6 c:/program files (x86)/microchip/mplab c30/bin/bin/../../lib\libm-elf.a(mulsf3.eo)
 __c30_signature
                  0x0006fe          0x6 c:/program files (x86)/microchip/mplab c30/bin/bin/../../lib\libm-elf.a(sqrtf.eo)
 __c30_signature
                  0x000704          0x6 c:/program files (x86)/microchip/mplab c30/bin/bin/../../lib\libm-elf.a(udivsi3.eo)
 __c30_signature
                  0x00070a          0x6 c:/program files (x86)/microchip/mplab c30/bin/bin/../../lib\libm-elf.a(asinacosf.eo)
 __c30_signature
                  0x000710          0x6 c:/program files (x86)/microchip/mplab c30/bin/bin/../../lib\libm-elf.a(fchop.eo)
 __c30_signature
                  0x000716          0x6 c:/program files (x86)/microchip/mplab c30/bin/bin/../../lib\libm-elf.a(fcompare.eo)
 __c30_signature
                  0x00071c          0x6 c:/program files (x86)/microchip/mplab c30/bin/bin/../../lib\libc-elf.a(atoi.XXeo)
 __c30_signature
                  0x000722          0x6 c:/program files (x86)/microchip/mplab c30/bin/bin/../../lib\libc-elf.a(exit.XXeo)
 __c30_signature
                  0x000728          0x6 c:/program files (x86)/microchip/mplab c30/bin/bin/../../lib\libc-elf.a(memset.XXeo)
 __c30_signature
                  0x00072e          0x6 c:/program files (x86)/microchip/mplab c30/bin/bin/../../lib\libc-elf.a(stdclean.XXeo)
 __c30_signature
                  0x000734          0x6 c:/program files (x86)/microchip/mplab c30/bin/bin/../../lib\libc-elf.a(strlen.XXeo)
 __c30_signature
                  0x00073a          0x6 c:/program files (x86)/microchip/mplab c30/bin/bin/../../lib\libc-elf.a(_iob.XXeo)
 __c30_signature
                  0x000740          0x6 c:/program files (x86)/microchip/mplab c30/bin/bin/../../lib\libc-elf.a(sscanf_cdnopuxX.XXeo)
 __c30_signature
                  0x000746          0x6 c:/program files (x86)/microchip/mplab c30/bin/bin/../../lib\libc-elf.a(doscan_cdnopuxX.XXeo)
 __c30_signature
                  0x00074c          0x6 c:/program files (x86)/microchip/mplab c30/bin/bin/../../lib\libc-elf.a(sprintf_cdfFnopsuxX.XXeo)
 __c30_signature
                  0x000752          0x6 c:/program files (x86)/microchip/mplab c30/bin/bin/../../lib\libc-elf.a(doprnt_cdfFnopsuxX.XXeo)
 __c30_signature
                  0x000758          0x6 c:/program files (x86)/microchip/mplab c30/bin/bin/../../lib\libc-elf.a(sscanf_s.XXeo)
 __c30_signature
                  0x00075e          0x6 c:/program files (x86)/microchip/mplab c30/bin/bin/../../lib\libc-elf.a(doscan_s.XXeo)
 __c30_signature
                  0x000764          0x6 c:/program files (x86)/microchip/mplab c30/bin/bin/../../lib\libc-elf.a(malloc.XXeo)
 __c30_signature
                  0x00076a          0x6 c:/program files (x86)/microchip/mplab c30/bin/bin/../../lib\libc-elf.a(fclose.XXelo)
 __c30_signature
                  0x000770          0x6 c:/program files (x86)/microchip/mplab c30/bin/bin/../../lib\libc-elf.a(fgetc.XXelo)
 __c30_signature
                  0x000776          0x6 c:/program files (x86)/microchip/mplab c30/bin/bin/../../lib\libc-elf.a(fputc.XXelo)
 __c30_signature
                  0x00077c          0x6 c:/program files (x86)/microchip/mplab c30/bin/bin/../../lib\libc-elf.a(powers.XXelo)
 __c30_signature
                  0x000782          0x6 c:/program files (x86)/microchip/mplab c30/bin/bin/../../lib\libc-elf.a(tfiles.XXelo)
 __c30_signature
                  0x000788          0x6 c:/program files (x86)/microchip/mplab c30/bin/bin/../../lib\libc-elf.a(ungetc.XXelo)
 __c30_signature
                  0x00078e          0x6 c:/program files (x86)/microchip/mplab c30/bin/bin/../../lib\libc-elf.a(buf.XXeo)
 __c30_signature
                  0x000794          0x6 c:/program files (x86)/microchip/mplab c30/bin/bin/../../lib\libc-elf.a(fflush.XXeo)
 __c30_signature
                  0x00079a          0x6 c:/program files (x86)/microchip/mplab c30/bin/bin/../../lib\libc-elf.a(filbuf.XXeo)
 __c30_signature
                  0x0007a0          0x6 c:/program files (x86)/microchip/mplab c30/bin/bin/../../lib\libc-elf.a(flsbuf.XXeo)
 __c30_signature
                  0x0007a6          0x6 c:/program files (x86)/microchip/mplab c30/bin/bin/../../lib\libc-elf.a(memcpy.XXeo)
 __c30_signature
                  0x0007ac          0x6 c:/program files (x86)/microchip/mplab c30/bin/bin/../../lib\libpic30-elf.a(_exit.eo)
 __c30_signature
                  0x0007b2          0x6 c:/program files (x86)/microchip/mplab c30/bin/bin/../../lib\libpic30-elf.a(read.eo)
 __c30_signature
                  0x0007b8          0x6 c:/program files (x86)/microchip/mplab c30/bin/bin/../../lib\libpic30-elf.a(close.eo)
 __c30_signature
                  0x0007be          0x6 c:/program files (x86)/microchip/mplab c30/bin/bin/../../lib\libpic30-elf.a(write.eo)
 __c30_signature
                  0x0007c4          0x6 c:/program files (x86)/microchip/mplab c30/bin/bin/../../lib\libpic30-elf.a(remove.eo)
 __c30_signature
                  0x0007ca          0x6 c:/program files (x86)/microchip/mplab c30/bin/bin/../../lib\libpic30-elf.a(sbrk.eo)
 __c30_signature
                  0x0007d0          0x6 c:/program files (x86)/microchip/mplab c30/bin/bin/../../lib\libpic30-elf.a(c30_uart.eo)
 __c30_signature
                  0x0007d6          0x6 c:/program files (x86)/microchip/mplab c30/bin/bin/../../lib\libpic30-elf.a(brk.elo)
 __c30_signature
                  0x0007dc          0x6 c:/program files (x86)/microchip/mplab c30/bin/bin/../../lib\libm-elf.a(adddf3.eo)
 __c30_signature
                  0x0007e2          0x6 c:/program files (x86)/microchip/mplab c30/bin/bin/../../lib\libm-elf.a(deqltle.eo)
 __c30_signature
                  0x0007e8          0x6 c:/program files (x86)/microchip/mplab c30/bin/bin/../../lib\libm-elf.a(dgtge.eo)
 __c30_signature
                  0x0007ee          0x6 c:/program files (x86)/microchip/mplab c30/bin/bin/../../lib\libm-elf.a(divdf3.eo)
 __c30_signature
                  0x0007f4          0x6 c:/program files (x86)/microchip/mplab c30/bin/bin/../../lib\libm-elf.a(dne.eo)
 __c30_signature
                  0x0007fa          0x6 c:/program files (x86)/microchip/mplab c30/bin/bin/../../lib\libm-elf.a(dpack.eo)
 __c30_signature
                  0x000800          0x6 c:/program files (x86)/microchip/mplab c30/bin/bin/../../lib\libm-elf.a(dunpack2.eo)
 __c30_signature
                  0x000806          0x6 c:/program files (x86)/microchip/mplab c30/bin/bin/../../lib\libm-elf.a(extendsfdf.eo)
 __c30_signature
                  0x00080c          0x6 c:/program files (x86)/microchip/mplab c30/bin/bin/../../lib\libm-elf.a(fixunsdfdi.eo)
 __c30_signature
                  0x000812          0x6 c:/program files (x86)/microchip/mplab c30/bin/bin/../../lib\libm-elf.a(floatdidf.eo)
 __c30_signature
                  0x000818          0x6 c:/program files (x86)/microchip/mplab c30/bin/bin/../../lib\libm-elf.a(frexpf.eo)
 __c30_signature
                  0x00081e          0x6 c:/program files (x86)/microchip/mplab c30/bin/bin/../../lib\libm-elf.a(muldf3.eo)
 __c30_signature
                  0x000824          0x6 c:/program files (x86)/microchip/mplab c30/bin/bin/../../lib\libm-elf.a(subdf3.eo)
 __c30_signature
                  0x00082a          0x6 c:/program files (x86)/microchip/mplab c30/bin/bin/../../lib\libm-elf.a(truncdfsf.eo)
 __c30_signature
                  0x000830          0x6 c:/program files (x86)/microchip/mplab c30/bin/bin/../../lib\libm-elf.a(mulsi3.eo)
 __c30_signature
                  0x000836          0x6 c:/program files (x86)/microchip/mplab c30/bin/bin/../../lib\libm-elf.a(divmoddi3.eo)
 __c30_signature
                  0x00083c          0x6 c:/program files (x86)/microchip/mplab c30/bin/bin/../../lib\libm-elf.a(_frexpf.eo)
 __c30_signature
                  0x000842          0x6 c:/program files (x86)/microchip/mplab c30/bin/bin/../../lib\libm-elf.a(dcompare.eo)
 __c30_signature
                  0x000848          0x6 c:/program files (x86)/microchip/mplab c30/bin/bin/../../lib\libm-elf.a(dpropagateNaN.eo)
 __c30_signature
                  0x00084e          0x6 c:/program files (x86)/microchip/mplab c30/bin/bin/../../lib\libm-elf.a(dtype.eo)
 __c30_signature
                  0x000854          0x6 c:/program files (x86)/microchip/mplab c30/bin/bin/../../lib\libm-elf.a(dunpack.eo)

.data               0x0800         0x88
 .data              0x0800         0x44 build/default/production/_ext/64492303/e_uart1_rx_char.o
                    0x0800                  _U1RXBuf
                    0x0840                  _U1RXRcvCnt
                    0x0842                  _U1RXReadCnt
 .data              0x0844         0x44 build/default/production/_ext/64492303/e_uart2_rx_char.o
                    0x0844                  _U2RXBuf
                    0x0884                  _U2RXRcvCnt
                    0x0886                  _U2RXReadCnt

.ndata              0x0888          0x8
 .ndata             0x0888          0x8 build/default/production/_ext/2015481517/e_sub_dci_kickoff.o
                    0x0888                  _e_stop_flag
                    0x088a                  _e_dci_unavailable
                    0x088c                  e_samples_count
                    0x088e                  e_actual_page

.data               0x0890          0xc
 .data              0x0890          0x6 build/default/production/_ext/64492303/e_uart1_tx_char.o
                    0x0890                  U1TXPtr
                    0x0892                  U1TXLength
                    0x0894                  U1TXOk
 .data              0x0896          0x6 build/default/production/_ext/64492303/e_uart2_tx_char.o
                    0x0896                  U2TXPtr
                    0x0898                  U2TXLength
                    0x089a                  U2TXOk

.nbss               0x089c          0x8
 .nbss              0x089c          0x4 build/default/production/_ext/1514613776/e_timers.o
                    0x089c                  __poxxxx_current_row
                    0x089e                  __poxxxx_row
 .nbss              0x08a0          0x2 build/default/production/_ext/2015481517/e_sub_dci_kickoff.o
                    0x08a0                  e_tone_ptr
 .nbss              0x08a2          0x2 c:/program files (x86)/microchip/mplab c30/bin/bin/../../lib\libm-elf.a(errno.eo)
                    0x08a2                  _errno

.bss                0x08a4       0x147e
 .bss               0x08a4        0xdb4 build/default/production/_ext/1472/main_c.o
                    0x08a8                  _buffer
                    0x1654                  _selector
                    0x1656                  _c
 .bss               0x1658        0x286 build/default/production/_ext/487958404/e_ad_conv.o
                    0x165e                  _e_mic_scan
                    0x18b6                  _e_ambient_ir
                    0x18ca                  _e_ambient_and_reflected_ir
 .bss               0x18de        0x280 build/default/production/_ext/1472/runlocatesound.o
                    0x18de                  _last_mic_id
                    0x18e0                  _mean_table
                    0x1b38                  _mean_nb
                    0x1b3a                  _mean
                    0x1b46                  _signal_max
                    0x1b52                  _signal_min
 .bss               0x1b5e        0x1c4 build/default/production/_ext/663421589/e_bluetooth.o
                    0x1b5e                  _e_bt_local_paired_device
                    0x1b8e                  _e_bt_present_device
                    0x1cb0                  _e_bt_present_epuck
                    0x1d1e                  _local_bt_PIN

.data               0x1d22        0x160
 .data              0x1d22        0x160 c:/program files (x86)/microchip/mplab c30/bin/bin/../../lib\libc-elf.a(powers.XXelo)
                    0x1d22                  __npowers_
                    0x1dd2                  __powers_

.bss                0x1e82        0x150
 .bss               0x1e82        0x150 build/default/production/_ext/1514613776/e_timers.o
                    0x1e84                  __poxxxx_buffer
                    0x1e86                  __poxxxx_img_ready
                    0x1e88                  __poxxxx_line_conf

.data               0x1fd2        0x2ea
 .data              0x1fd2        0x130 build/default/production/_ext/487958404/e_ad_conv.o
                    0x1fd2                  _e_acc_scan
                    0x20fe                  _e_last_mic_scan_id
                    0x2100                  _e_last_acc_scan_id
 .data              0x2102         0xd8 build/default/production/_ext/1514613776/e_po3030k_registers.o
 .data              0x21da         0xa0 c:/program files (x86)/microchip/mplab c30/bin/bin/../../lib\libc-elf.a(doprnt_cdfFnopsuxX.XXeo)
 .data              0x227a         0x42 build/default/production/_ext/1472/runbreitenberg_adv.o
                    0x227a                  _ui_lin
                    0x227c                  _factor_array
                    0x229c                  _matrix_prox

.bss                0x22bc         0x72
 .bss               0x22bc         0x40 build/default/production/_ext/1472/Asercom.o
 .bss               0x22fc         0x32 build/default/production/_ext/1472/runbreitenberg_adv.o
                    0x22fc                  _i
                    0x22fe                  _s
                    0x2300                  _m
                    0x2302                  _potential
                    0x230a                  _speed
                    0x230e                  _ProxSensOffBuf

.dconst             0x232e         0x2a
 .dconst            0x232e         0x2a c:/program files (x86)/microchip/mplab c30/bin/bin/../../lib\libc-elf.a(doprnt_cdfFnopsuxX.XXeo)

.data               0x2358         0x46
 .data              0x2358         0x26 c:/program files (x86)/microchip/mplab c30/bin/bin/../../lib\libc-elf.a(_iob.XXeo)
                    0x2358                  __Files
                    0x235a                  __iob
 .data              0x237e         0x20 build/default/production/_ext/1472/runwallfollow.o
                    0x237e                  _follow_weightleft
                    0x238e                  _follow_weightright

.bss                0x239e         0x64
 .bss               0x239e         0x18 build/default/production/_ext/487958404/e_acc.o
 .bss               0x23b6         0x14 build/default/production/_ext/487958404/e_prox.o
 .bss               0x23ca         0x10 build/default/production/_ext/1472/runwallfollow.o
                    0x23ca                  _follow_sensorzero
 .bss               0x23da         0x10 build/default/production/_ext/879901074/e_motors.o
 .bss               0x23ea         0x10 c:/program files (x86)/microchip/mplab c30/bin/bin/../../lib\libc-elf.a(malloc.XXeo)
                    0x23ea                  __allocx
                    0x23ee                  __alloct
                    0x23f0                  __allocp
                    0x23f2                  __allocs
 .bss               0x23fa          0x8 build/default/production/_ext/417766185/e_I2C_master_module.o
                    0x23fa                  _e_i2c_mode
                    0x23fc                  _e_interrupts

.data               0x2402          0x6
 .data              0x2402          0x6 build/default/production/_ext/1472/main_c.o

.bss                0x2408         0x18
 .bss               0x2408          0x6 build/default/production/_ext/1472/runaccelerometer.o
                    0x2408                  _accx0
                    0x240a                  _accy0
                    0x240c                  _accz0
 .bss               0x240e          0x6 build/default/production/_ext/1949949662/e_remote_control.o
 .bss               0x2414          0x6 build/default/production/_ext/879901074/e_led.o
 .bss               0x241a          0x6 c:/program files (x86)/microchip/mplab c30/bin/bin/../../lib\libc-elf.a(_iob.XXeo)
                    0x241a                  __sobuf
                    0x241c                  __sibuf
                    0x241e                  __outdone

.data               0x2420          0x8
 .data              0x2420          0x4 build/default/production/_ext/1949949662/e_remote_control.o
 .data              0x2424          0x2 build/default/production/_ext/1472/Asercom.o
 .data              0x2426          0x2 build/default/production/_ext/487958404/e_acc.o

.bss                0x2428          0x4
 .bss               0x2428          0x2 build/default/production/_ext/930121020/e_common.o
 .bss               0x242a          0x2 build/default/production/_ext/1949949662/e_agenda.o

.data               0x242c          0x2
 .data              0x242c          0x2 build/default/production/_ext/879901074/e_led.o

.bss                0x242e          0xa
 .bss               0x242e          0x2 c:/program files (x86)/microchip/mplab c30/bin/bin/../../lib\libc-elf.a(stdclean.XXeo)
                    0x242e                  __atexitptr
 .bss               0x2430          0x2 c:/program files (x86)/microchip/mplab c30/bin/bin/../../lib\libc-elf.a(doscan_cdnopuxX.XXeo)
 .bss               0x2432          0x2 c:/program files (x86)/microchip/mplab c30/bin/bin/../../lib\libc-elf.a(doscan_s.XXeo)
 .bss               0x2434          0x2 c:/program files (x86)/microchip/mplab c30/bin/bin/../../lib\libc-elf.a(tfiles.XXelo)
                    0x2434                  __tfilesptr
 .bss               0x2436          0x2 c:/program files (x86)/microchip/mplab c30/bin/bin/../../lib\libc-elf.a(buf.XXeo)

.data               0x2438          0x2
 .data              0x2438          0x2 c:/program files (x86)/microchip/mplab c30/bin/bin/../../lib\libpic30-elf.a(c30_uart.eo)
                    0x2438                  ___C30_UART

.bss                0x243a          0x2
 .bss               0x243a          0x2 c:/program files (x86)/microchip/mplab c30/bin/bin/../../lib\libpic30-elf.a(brk.elo)
                    0x243a                  ___curbrk

.heap               0x243c         0x80
 .heap              0x243c         0x80 heap

.const              0xa6fa        0xaba load address 0x0026fa  
 .const             0xa6fa        0x502 build/default/production/_ext/1472/Asercom.o
 .const             0xabfc        0x3ac build/default/production/_ext/1472/main_c.o
 .const             0xafa8         0xac build/default/production/_ext/1472/translatorI2C.o
 .const             0xb054         0x9e build/default/production/_ext/1472/runaccelerometer.o
 .const             0xb0f2         0x80 build/default/production/_ext/1472/runshow.o
 .const             0xb172         0x28 build/default/production/_ext/1472/runlocatesound.o
 .const             0xb19a         0x1a build/default/production/_ext/1472/runwallfollow.o

.sound_samples    0x0031b4       0x94c8
 .sound_samples
                  0x0031b4       0x94c8 build/default/production/_ext/2015481517/e_const_sound.o
                  0x0031b4                  e_sound_sample

.text             0x00c67c       0x5b66
 .text            0x00c67c       0x1938 build/default/production/_ext/1472/Asercom.o
                  0x00c67c                  _run_asercom
 .text            0x00dfb4        0xe98 build/default/production/_ext/663421589/e_bluetooth.o
                  0x00dfb4                  _e_bt_find_epuck
                  0x00e134                  _e_bt_connect_epuck
                  0x00e162                  _e_bt_reset
                  0x00e216                  _e_bt_factory_reset
                  0x00e29a                  _e_bt_tranparent_mode
                  0x00e324                  _e_bt_exit_tranparent_mode
                  0x00e358                  _e_bt_read_local_pin_number
                  0x00e412                  _e_bt_read_local_name
                  0x00e4be                  _e_bt_write_local_pin_number
                  0x00e59e                  _e_bt_write_local_name
                  0x00e680                  _e_bt_inquiry
                  0x00e7aa                  _e_bt_get_friendly_name
                  0x00e89a                  _e_bt_etablish_SPP_link
                  0x00e98a                  _e_bt_release_SPP_link
                  0x00eab2                  _e_bt_send_SPP_data
                  0x00eb9c                  _e_bt_list_local_paired_device
                  0x00ec4c                  _e_bt_remove_local_paired_device
                  0x00ed2e                  _e_bt_set_event_filter
                  0x00edc8                  _e_bt_get_event_filter
 .text            0x00ee4c        0x926 build/default/production/_ext/1514613776/e_po3030k_registers.o
                  0x00ee4c                  _e_po3030k_write_cam_registers
                  0x00ee80                  _e_po3030k_read_cam_registers
                  0x00eeb8                  _e_po3030k_set_color_mode
                  0x00eefc                  _e_po3030k_set_sampling_mode
                  0x00ef2a                  _e_po3030k_set_speed
                  0x00ef74                  _e_po3030k_set_wx
                  0x00efd0                  _e_po3030k_set_wy
                  0x00f026                  _e_po3030k_set_vsync
                  0x00f0a2                  _e_po3030k_set_mirror
                  0x00f0e0                  _e_po3030k_set_register
                  0x00f11a                  _e_po3030k_get_register
                  0x00f156                  _e_po3030k_set_bias
                  0x00f16a                  _e_po3030k_set_color_gain
                  0x00f1a8                  _e_po3030k_set_integr_time
                  0x00f1d6                  _e_po3030k_set_adc_offset
                  0x00f1e2                  _e_po3030k_set_sepia
                  0x00f208                  _e_po3030k_set_lens_gain
                  0x00f224                  _e_po3030k_set_edge_prop
                  0x00f240                  _e_po3030k_set_gamma_coef
                  0x00f282                  _e_po3030k_write_gamma_coef
                  0x00f2ac                  _e_po3030k_sync_register_array
                  0x00f30a                  _e_po3030k_SetColorMatrix
                  0x00f336                  _e_po3030k_set_cb_cr_gain
                  0x00f34a                  _e_po3030k_set_brigh_contr
                  0x00f35e                  _e_po3030k_set_sepia_tone
                  0x00f372                  _e_po3030k_set_ww
                  0x00f386                  _e_po3030k_set_awb_ae_tol
                  0x00f3a2                  _e_po3030k_set_ae_speed
                  0x00f3c0                  _e_po3030k_set_exposure
                  0x00f3ec                  _e_po3030k_set_ref_exposure
                  0x00f3f8                  _e_po3030k_set_max_min_exp
                  0x00f426                  _e_po3030k_set_max_min_awb
                  0x00f45a                  _e_po3030k_set_weight_win
                  0x00f520                  _e_po3030k_set_awb_ae
                  0x00f55e                  _e_po3030k_set_flicker_mode
                  0x00f584                  _e_po3030k_set_flicker_detection
                  0x00f68e                  _e_po3030k_set_flicker_man_set
 .text            0x00f772        0x8fa build/default/production/_ext/1472/runlocatesound.o
                  0x00f772                  _init_sound
                  0x00f862                  _record_sound
                  0x00f874                  _check_for_event
                  0x00f96e                  _filter_signal
                  0x00fa16                  _calculate_average
                  0x00fb3e                  _calculate_direction
                  0x00fce2                  _find_delta_t
                  0x00fd98                  _show_led
                  0x00fe7a                  _turn_to_direction
                  0x00ff14                  _run_locatesound
 .text            0x01006c        0x7b6 build/default/production/_ext/879901074/e_led.o
                  0x01006c                  _e_set_led
                  0x01030e                  _e_led_clear
                  0x010324                  _e_set_body_led
                  0x010364                  _e_set_front_led
                  0x0103a4                  _e_blink_led
                  0x01047a                  _e_blink_led0
                  0x01049c                  _e_blink_led1
                  0x0104b6                  _e_blink_led2
                  0x0104d8                  _e_blink_led3
                  0x0104fa                  _e_blink_led4
                  0x01051c                  _e_blink_led5
                  0x01053e                  _e_blink_led6
                  0x010560                  _e_blink_led7
                  0x01057a                  _e_start_led_blinking
                  0x01058a                  _e_stop_led_blinking
                  0x010596                  _e_set_blinking_cycle
                  0x0105aa                  _snake_led
                  0x01061a                  _flow_led
                  0x0106a2                  _k2000_led
                  0x010742                  _right_led
                  0x0107b2                  _left_led
 .text            0x010822        0x792 build/default/production/_ext/1472/main_c.o
                  0x010822                  _main
 .text            0x010fb4        0x620 build/default/production/_ext/487958404/e_acc.o
                  0x010fb4                  _e_get_acc
                  0x011028                  _e_get_acc_filtered
                  0x0110aa                  _calculate_acc_raw
                  0x0110da                  _calculate_acc_spherical
                  0x011206                  _e_acc_calibr
                  0x01122a                  _e_read_acc_spheric
                  0x011268                  _e_read_inclination
                  0x011274                  _e_read_orientation
                  0x011280                  _e_read_acc
                  0x01128c                  _e_read_acc_xyz
                  0x0112b0                  _e_read_acc_x
                  0x0112ba                  _e_read_acc_y
                  0x0112c4                  _e_read_acc_z
                  0x0112ce                  _e_display_angle
 .text            0x0115d4        0x60e build/default/production/_ext/487958404/e_ad_conv.o
                  0x0115d4                  _e_init_ad_scan
                  0x0116be                  __ADCInterrupt
                  0x011bba                  _e_ad_is_acquisition_completed
                  0x011bc6                  _e_ad_is_array_filled
                  0x011bd2                  _e_ad_scan_on
                  0x011bda                  _e_ad_scan_off
 .text            0x011be2        0x600 build/default/production/_ext/1472/runshow.o
                  0x011be2                  _run_CameraTurn
                  0x011dc6                  _run_SensDispl
                  0x011fa2                  _run_DustCleaner

.dinit            0x0121e2        0x4c2
 .dinit           0x0121e2        0x4c2 data_init

.text             0x0126a4       0x2836
 .text            0x0126a4        0x386 build/default/production/_ext/1472/runaccelerometer.o
                  0x0126a4                  _acc_calibrate
                  0x012768                  _run_accelerometer
 .text            0x012a2a        0x372 build/default/production/_ext/417766185/e_I2C_master_module.o
                  0x012a2a                  _idle_i2c
                  0x012a5a                  _e_i2c_init
                  0x012a94                  _e_i2c_reset
                  0x012adc                  _e_i2c_enable
                  0x012ae8                  _e_i2c_disable
                  0x012af4                  _e_i2c_start
                  0x012b3c                  _e_i2c_restart
                  0x012b84                  _e_i2c_stop
                  0x012bbe                  _e_i2c_ack
                  0x012c28                  _e_i2c_nack
                  0x012c92                  _e_i2c_read
                  0x012d42                  _e_i2c_write
                  0x012d82                  __MI2CInterrupt
 .text            0x012d9c        0x358 build/default/production/_ext/879901074/e_motors.o
                  0x012d9c                  _run_left_motor
                  0x012e84                  _run_right_motor
                  0x012f6c                  _e_init_motors
                  0x012f82                  _e_set_speed_left
                  0x013006                  _e_set_speed_right
                  0x01308a                  _e_set_speed
                  0x0130cc                  _e_get_steps_left
                  0x0130d4                  _e_set_steps_left
                  0x0130e0                  _e_get_steps_right
                  0x0130e8                  _e_set_steps_right
 .text            0x0130f4        0x354 build/default/production/_ext/930121020/e_po6030k_registers.o
                  0x0130f4                  _e_po6030k_set_bank
                  0x01310e                  _e_po6030k_write_register
                  0x013130                  _e_po6030k_read_register
                  0x013152                  _e_po6030k_set_bayer_clkdiv
                  0x013162                  _e_po6030k_set_pclkdiv
                  0x013296                  _e_po6030k_set_mode
                  0x0132ee                  _e_po6030k_set_wx
                  0x013344                  _e_po6030k_set_wy
                  0x013350                  _e_po6030k_set_vsync
                  0x0133b0                  _e_po6030k_set_sketch_mode
                  0x01340e                  _e_po6030k_set_mirror
 .text            0x013448        0x31e build/default/production/_ext/1472/runwallfollow.o
                  0x013448                  _follow_sensor_calibrate
                  0x013530                  _followgetSelectorValue
                  0x013568                  _followGetSensorValues
                  0x0135a2                  _followsetSpeed
                  0x0135e4                  _run_wallfollow
 .text            0x013766        0x2cc build/default/production/_ext/1472/runbreitenberg_adv.o
                  0x013766                  _shock_neuron
                  0x013886                  _lin_speed_calc
                  0x013944                  _angle_speed_calc
                  0x013980                  _follow_neuron
                  0x0139de                  _run_breitenberg_follower
                  0x013a08                  _run_breitenberg_shocker
 .text            0x013a32        0x2c0 build/default/production/_ext/1514613776/e_calc_po6030k.o
                  0x013a32                  _e_po6030k_config_cam
                  0x013cba                  _e_po6030k_get_bytes_per_pixel
 .text            0x013cf2        0x28c build/default/production/_ext/1514613776/e_calc_po3030k.o
                  0x013cf2                  _e_po3030k_config_cam
                  0x013f46                  _e_po3030k_get_bytes_per_pixel
 .text            0x013f7e        0x21c build/default/production/_ext/1949949662/e_agenda.o
                  0x013f7e                  _e_start_agendas_processing
                  0x013fa0                  _e_end_agendas_processing
                  0x013fa8                  _e_activate_agenda
                  0x01400c                  _e_destroy_agenda
                  0x01405e                  _e_set_agenda_cycle
                  0x014094                  _e_reset_agenda
                  0x0140c8                  _e_pause_agenda
                  0x0140fc                  _e_restart_agenda
                  0x014130                  __T2Interrupt
 .text            0x01419a        0x17e build/default/production/_ext/1949949662/e_remote_control.o
                  0x01419a                  _e_init_remote_control
                  0x0141a8                  __INT0Interrupt
                  0x0141ea                  _e_read_remote_control
                  0x0142f4                  _e_get_check
                  0x014300                  _e_get_address
                  0x01430c                  _e_get_data
 .text            0x014318        0x174 build/default/production/_ext/487958404/e_micro.o
                  0x014318                  _e_get_micro
                  0x014332                  _e_get_micro_average
                  0x0143b4                  _e_get_micro_volume
                  0x014432                  _e_get_micro_last_values
 .text            0x01448c        0x16c build/default/production/_ext/487958404/e_prox.o
                  0x01448c                  _e_calibrate_ir
                  0x014562                  _e_get_prox
                  0x014590                  _e_get_calibrated_prox
                  0x0145d6                  _e_get_ambient_light
 .text            0x0145f8        0x10a build/default/production/_ext/930121020/e_common.o
                  0x0145f8                  _e_poxxxx_config_cam
                  0x014654                  _e_poxxxx_set_mirror
                  0x014686                  _e_poxxxx_write_cam_registers
                  0x01469a                  _e_poxxxx_init_cam
 .text            0x014702        0x102 build/default/production/_ext/1514613776/e_timers.o
                  0x014702                  __T5Interrupt
                  0x01474c                  _e_poxxxx_launch_capture
                  0x014764                  _e_poxxxx_apply_timer_config
                  0x0147fc                  _e_poxxxx_is_img_ready
 .text            0x014804         0xc0 build/default/production/_ext/417766185/e_I2C_protocol.o
                  0x014804                  _e_i2cp_init
                  0x01480e                  _e_i2cp_enable
                  0x014818                  _e_i2cp_disable
                  0x014822                  _e_i2cp_read
                  0x01487c                  _e_i2cp_write
 .text            0x0148c4         0xae build/default/production/_ext/1472/DataEEPROM.o
                  0x0148c4                  _ReadEE
                  0x0148de                  _EraseEE
                  0x014926                  _WriteEE
 .text            0x014972         0xac build/default/production/_ext/2015481517/e_init_codec_slave.o
                  0x014972                  _e_init_codec_slave
 .text            0x014a1e         0x92 build/default/production/_ext/1472/translatorI2C.o
                  0x014a1e                  _run_translatorI2C
                  0x014a8c                  _run_translatorI2C_b
 .text            0x014ab0         0x8a build/default/production/_ext/1259340286/e_init_port.o
                  0x014ab0                  _e_init_port
 .text            0x014b3a         0x76 build/default/production/_ext/2015481517/e_isr_dci.o
                  0x014b3a                  __DCIInterrupt
 .text            0x014bb0         0x76 build/default/production/_ext/2015481517/e_sub_dci_kickoff.o
                  0x014bb0                  _e_sub_dci_kickoff
 .text            0x014c26         0x60 build/default/production/_ext/64492303/e_uart1_tx_char.o
                  0x014c26                  __U1TXInterrupt
                  0x014c6a                  _e_send_uart1_char
                  0x014c82                  _e_uart1_sending
 .text            0x014c86         0x60 build/default/production/_ext/64492303/e_uart2_tx_char.o
                  0x014c86                  __U2TXInterrupt
                  0x014cca                  _e_send_uart2_char
                  0x014ce2                  _e_uart2_sending
 .text            0x014ce6         0x5a build/default/production/_ext/1472/utility.o
                  0x014ce6                  _wait
                  0x014d08                  _getselector
 .text            0x014d40         0x3e build/default/production/_ext/2015481517/e_init_dci_master.o
                  0x014d40                  _e_init_dci_master
 .text            0x014d7e         0x3c build/default/production/_ext/2015481517/e_sound.o
                  0x014d7e                  _e_init_sound
                  0x014d9c                  _e_play_sound
                  0x014db2                  _e_close_sound
 .text            0x014dba         0x3c build/default/production/_ext/64492303/e_uart1_rx_char.o
                  0x014dba                  __U1RXInterrupt
                  0x014dd2                  _e_ischar_uart1
                  0x014dda                  _e_getchar_uart1
 .text            0x014df6         0x3c build/default/production/_ext/64492303/e_uart2_rx_char.o
                  0x014df6                  __U2RXInterrupt
                  0x014e0e                  _e_ischar_uart2
                  0x014e16                  _e_getchar_uart2
 .text            0x014e32         0x38 build/default/production/_ext/930121020/e_interrupt.o
                  0x014e32                  __T4Interrupt
 .text            0x014e6a         0x2e build/default/production/_ext/64492303/e_init_uart1.o
                  0x014e6a                  _e_init_uart1
 .text            0x014e98         0x2c build/default/production/_ext/760574787/e_init_uart2.o
                  0x014e98                  _e_init_uart2
 .text            0x014ec4         0x16 build/default/production/_ext/1472/rungrounddirection.o
                  0x014ec4                  _run_grounddirection
